

Microchip MPLAB XC8 Assembler V2.10 build 88905656 
                                                                                               Mon Mar 09 00:51:37 2020

Microchip MPLAB XC8 C Compiler v2.10 (Free license) build 20190730164152 Og1 
     1                           	processor	16F18875
     2                           	opt	pw 120
     3                           	opt	flic
     4                           	psect	stringtext1,global,class=STRCODE,delta=2
     5                           	psect	stringtext2,global,class=STRCODE,delta=2
     6                           	psect	cinit,global,class=CODE,merge=1,delta=2
     7                           	psect	bssBANK0,global,class=BANK0,space=1,delta=1
     8                           	psect	cstackCOMMON,global,class=COMMON,space=1,delta=1
     9                           	psect	cstackBANK0,global,class=BANK0,space=1,delta=1
    10                           	psect	maintext,global,class=CODE,merge=1,split=1,delta=2
    11                           	psect	text1,local,class=CODE,merge=1,delta=2
    12                           	psect	text2,local,class=CODE,merge=1,delta=2
    13                           	psect	text3,local,class=CODE,merge=1,delta=2,group=2
    14                           	psect	text4,local,class=CODE,merge=1,delta=2
    15                           	psect	text5,local,class=CODE,merge=1,delta=2
    16                           	psect	text6,local,class=CODE,merge=1,delta=2
    17                           	psect	text7,local,class=CODE,merge=1,delta=2
    18                           	psect	text8,local,class=CODE,merge=1,delta=2
    19                           	psect	text9,local,class=CODE,merge=1,delta=2
    20                           	psect	text10,local,class=CODE,merge=1,delta=2
    21                           	psect	text11,local,class=CODE,merge=1,delta=2
    22                           	psect	text12,local,class=CODE,merge=1,delta=2,group=1
    23                           	psect	text13,local,class=CODE,merge=1,delta=2,group=1
    24                           	psect	text14,local,class=CODE,merge=1,delta=2,group=1
    25                           	psect	text15,local,class=CODE,merge=1,delta=2,group=1
    26                           	psect	text16,local,class=CODE,merge=1,delta=2,group=1
    27                           	psect	text17,local,class=CODE,merge=1,delta=2,group=1
    28                           	psect	text18,local,class=CODE,merge=1,delta=2
    29                           	psect	text19,local,class=CODE,merge=1,delta=2
    30                           	psect	intentry,global,class=CODE,delta=2
    31                           	dabs	1,0x7E,2
    32  0000                     
    33                           ; Version 2.10
    34                           ; Generated 31/07/2019 GMT
    35                           ; 
    36                           ; Copyright © 2019, Microchip Technology Inc. and its subsidiaries ("Microchip")
    37                           ; All rights reserved.
    38                           ; 
    39                           ; This software is developed by Microchip Technology Inc. and its subsidiaries ("Microch
      +                          ip").
    40                           ; 
    41                           ; Redistribution and use in source and binary forms, with or without modification, are
    42                           ; permitted provided that the following conditions are met:
    43                           ; 
    44                           ;     1. Redistributions of source code must retain the above copyright notice, this lis
      +                          t of
    45                           ;        conditions and the following disclaimer.
    46                           ; 
    47                           ;     2. Redistributions in binary form must reproduce the above copyright notice, this 
      +                          list
    48                           ;        of conditions and the following disclaimer in the documentation and/or other
    49                           ;        materials provided with the distribution.
    50                           ; 
    51                           ;     3. Microchip's name may not be used to endorse or promote products derived from th
      +                          is
    52                           ;        software without specific prior written permission.
    53                           ; 
    54                           ; THIS SOFTWARE IS PROVIDED BY MICROCHIP "AS IS" AND ANY EXPRESS OR IMPLIED WARRANTIES,
    55                           ; INCLUDING, BUT NOT LIMITED TO, THE IMPLIED WARRANTIES OF MERCHANTABILITY AND FITNESS F
      +                          OR
    56                           ; PURPOSE ARE DISCLAIMED.  IN NO EVENT SHALL MICROCHIP BE LIABLE FOR ANY DIRECT, INDIREC
      +                          T,
    57                           ; INCIDENTAL, SPECIAL, EXEMPLARY, OR CONSEQUENTIAL DAMAGES (INCLUDING BUT NOT LIMITED TO
    58                           ; PROCUREMENT OF SUBSTITUTE GOODS OR SERVICES; LOSS OF USE, DATA OR PROFITS; OR BUSINESS
    59                           ; INTERRUPTION) HOWSOEVER CAUSED AND ON ANY THEORY OF LIABILITY, WHETHER IN CONTRACT, ST
      +                          RICT
    60                           ; LIABILITY, OR TORT (INCLUDING NEGLIGENCE OR OTHERWISE) ARISING IN ANY WAY OUT OF THE U
      +                          SE OF
    61                           ; THIS SOFTWARE, EVEN IF ADVISED OF THE POSSIBILITY OF SUCH DAMAGE.
    62                           ; 
    63                           ; 
    64                           ; Code-generator required, PIC16F18875 Definitions
    65                           ; 
    66                           ; SFR Addresses
    67  0000                     	;# 
    68  0001                     	;# 
    69  0002                     	;# 
    70  0003                     	;# 
    71  0004                     	;# 
    72  0005                     	;# 
    73  0006                     	;# 
    74  0007                     	;# 
    75  0008                     	;# 
    76  0009                     	;# 
    77  000A                     	;# 
    78  000B                     	;# 
    79  000C                     	;# 
    80  000D                     	;# 
    81  000E                     	;# 
    82  000F                     	;# 
    83  0010                     	;# 
    84  0011                     	;# 
    85  0012                     	;# 
    86  0013                     	;# 
    87  0014                     	;# 
    88  0015                     	;# 
    89  0016                     	;# 
    90  0017                     	;# 
    91  0018                     	;# 
    92  0019                     	;# 
    93  001A                     	;# 
    94  001C                     	;# 
    95  001C                     	;# 
    96  001D                     	;# 
    97  001D                     	;# 
    98  001E                     	;# 
    99  001F                     	;# 
   100  008C                     	;# 
   101  008C                     	;# 
   102  008D                     	;# 
   103  008E                     	;# 
   104  008E                     	;# 
   105  008F                     	;# 
   106  0090                     	;# 
   107  0090                     	;# 
   108  0091                     	;# 
   109  0093                     	;# 
   110  0094                     	;# 
   111  0095                     	;# 
   112  0096                     	;# 
   113  0097                     	;# 
   114  0098                     	;# 
   115  0099                     	;# 
   116  009A                     	;# 
   117  009B                     	;# 
   118  009C                     	;# 
   119  009D                     	;# 
   120  009E                     	;# 
   121  010C                     	;# 
   122  010D                     	;# 
   123  010E                     	;# 
   124  010E                     	;# 
   125  010F                     	;# 
   126  0110                     	;# 
   127  0110                     	;# 
   128  0111                     	;# 
   129  0112                     	;# 
   130  0112                     	;# 
   131  0113                     	;# 
   132  0114                     	;# 
   133  0114                     	;# 
   134  0115                     	;# 
   135  0116                     	;# 
   136  0116                     	;# 
   137  0117                     	;# 
   138  0119                     	;# 
   139  0119                     	;# 
   140  0119                     	;# 
   141  011A                     	;# 
   142  011A                     	;# 
   143  011A                     	;# 
   144  011B                     	;# 
   145  011B                     	;# 
   146  011B                     	;# 
   147  011B                     	;# 
   148  011B                     	;# 
   149  011C                     	;# 
   150  011C                     	;# 
   151  011C                     	;# 
   152  011D                     	;# 
   153  011D                     	;# 
   154  011D                     	;# 
   155  011E                     	;# 
   156  011E                     	;# 
   157  011E                     	;# 
   158  011F                     	;# 
   159  011F                     	;# 
   160  011F                     	;# 
   161  011F                     	;# 
   162  011F                     	;# 
   163  018C                     	;# 
   164  018D                     	;# 
   165  018E                     	;# 
   166  018F                     	;# 
   167  0190                     	;# 
   168  0191                     	;# 
   169  0192                     	;# 
   170  0196                     	;# 
   171  0197                     	;# 
   172  0198                     	;# 
   173  0199                     	;# 
   174  019A                     	;# 
   175  019B                     	;# 
   176  019C                     	;# 
   177  020C                     	;# 
   178  020C                     	;# 
   179  020D                     	;# 
   180  020E                     	;# 
   181  020F                     	;# 
   182  020F                     	;# 
   183  0210                     	;# 
   184  0210                     	;# 
   185  0211                     	;# 
   186  0211                     	;# 
   187  0212                     	;# 
   188  0212                     	;# 
   189  0213                     	;# 
   190  0214                     	;# 
   191  0215                     	;# 
   192  0215                     	;# 
   193  0216                     	;# 
   194  0216                     	;# 
   195  0217                     	;# 
   196  0217                     	;# 
   197  0218                     	;# 
   198  0218                     	;# 
   199  0219                     	;# 
   200  021A                     	;# 
   201  021B                     	;# 
   202  021B                     	;# 
   203  021C                     	;# 
   204  021C                     	;# 
   205  021D                     	;# 
   206  021D                     	;# 
   207  021E                     	;# 
   208  021F                     	;# 
   209  028C                     	;# 
   210  028C                     	;# 
   211  028D                     	;# 
   212  028D                     	;# 
   213  028E                     	;# 
   214  028F                     	;# 
   215  0290                     	;# 
   216  0290                     	;# 
   217  0291                     	;# 
   218  0292                     	;# 
   219  0292                     	;# 
   220  0293                     	;# 
   221  0293                     	;# 
   222  0294                     	;# 
   223  0295                     	;# 
   224  0296                     	;# 
   225  0296                     	;# 
   226  0297                     	;# 
   227  0298                     	;# 
   228  0298                     	;# 
   229  0299                     	;# 
   230  0299                     	;# 
   231  029A                     	;# 
   232  029B                     	;# 
   233  029C                     	;# 
   234  029C                     	;# 
   235  029D                     	;# 
   236  030C                     	;# 
   237  030C                     	;# 
   238  030D                     	;# 
   239  030E                     	;# 
   240  030F                     	;# 
   241  0310                     	;# 
   242  0310                     	;# 
   243  0311                     	;# 
   244  0312                     	;# 
   245  0313                     	;# 
   246  0314                     	;# 
   247  0314                     	;# 
   248  0315                     	;# 
   249  0316                     	;# 
   250  0317                     	;# 
   251  0318                     	;# 
   252  0318                     	;# 
   253  0319                     	;# 
   254  031A                     	;# 
   255  031B                     	;# 
   256  031C                     	;# 
   257  031C                     	;# 
   258  031D                     	;# 
   259  031E                     	;# 
   260  031F                     	;# 
   261  038C                     	;# 
   262  038C                     	;# 
   263  038D                     	;# 
   264  038E                     	;# 
   265  0390                     	;# 
   266  0390                     	;# 
   267  0391                     	;# 
   268  0392                     	;# 
   269  040C                     	;# 
   270  040D                     	;# 
   271  040E                     	;# 
   272  040F                     	;# 
   273  0410                     	;# 
   274  0411                     	;# 
   275  0416                     	;# 
   276  0416                     	;# 
   277  0417                     	;# 
   278  0418                     	;# 
   279  0418                     	;# 
   280  0419                     	;# 
   281  041A                     	;# 
   282  041A                     	;# 
   283  041B                     	;# 
   284  041C                     	;# 
   285  041C                     	;# 
   286  041D                     	;# 
   287  041E                     	;# 
   288  041F                     	;# 
   289  048C                     	;# 
   290  048C                     	;# 
   291  048D                     	;# 
   292  048E                     	;# 
   293  048F                     	;# 
   294  048F                     	;# 
   295  0490                     	;# 
   296  0491                     	;# 
   297  0492                     	;# 
   298  0492                     	;# 
   299  0493                     	;# 
   300  0494                     	;# 
   301  0495                     	;# 
   302  0495                     	;# 
   303  0496                     	;# 
   304  0497                     	;# 
   305  0498                     	;# 
   306  0499                     	;# 
   307  049A                     	;# 
   308  049B                     	;# 
   309  049C                     	;# 
   310  049D                     	;# 
   311  050C                     	;# 
   312  050C                     	;# 
   313  050D                     	;# 
   314  050E                     	;# 
   315  050F                     	;# 
   316  050F                     	;# 
   317  0510                     	;# 
   318  0511                     	;# 
   319  0512                     	;# 
   320  0512                     	;# 
   321  0513                     	;# 
   322  0514                     	;# 
   323  0515                     	;# 
   324  0515                     	;# 
   325  0516                     	;# 
   326  0517                     	;# 
   327  0518                     	;# 
   328  0519                     	;# 
   329  051A                     	;# 
   330  051B                     	;# 
   331  051C                     	;# 
   332  051D                     	;# 
   333  058C                     	;# 
   334  058C                     	;# 
   335  058D                     	;# 
   336  058E                     	;# 
   337  058F                     	;# 
   338  058F                     	;# 
   339  0590                     	;# 
   340  0591                     	;# 
   341  0592                     	;# 
   342  0593                     	;# 
   343  060C                     	;# 
   344  060D                     	;# 
   345  060E                     	;# 
   346  060F                     	;# 
   347  0610                     	;# 
   348  0611                     	;# 
   349  0612                     	;# 
   350  0613                     	;# 
   351  0614                     	;# 
   352  0616                     	;# 
   353  0617                     	;# 
   354  0618                     	;# 
   355  0619                     	;# 
   356  061A                     	;# 
   357  061B                     	;# 
   358  061C                     	;# 
   359  061D                     	;# 
   360  061E                     	;# 
   361  068C                     	;# 
   362  068D                     	;# 
   363  068E                     	;# 
   364  068F                     	;# 
   365  0690                     	;# 
   366  0691                     	;# 
   367  0692                     	;# 
   368  0693                     	;# 
   369  0694                     	;# 
   370  070C                     	;# 
   371  070D                     	;# 
   372  070E                     	;# 
   373  070F                     	;# 
   374  0710                     	;# 
   375  0711                     	;# 
   376  0712                     	;# 
   377  0713                     	;# 
   378  0714                     	;# 
   379  0716                     	;# 
   380  0717                     	;# 
   381  0718                     	;# 
   382  0719                     	;# 
   383  071A                     	;# 
   384  071B                     	;# 
   385  071C                     	;# 
   386  071D                     	;# 
   387  071E                     	;# 
   388  0796                     	;# 
   389  0797                     	;# 
   390  0798                     	;# 
   391  0799                     	;# 
   392  079A                     	;# 
   393  079B                     	;# 
   394  080C                     	;# 
   395  080D                     	;# 
   396  080E                     	;# 
   397  080F                     	;# 
   398  0810                     	;# 
   399  0811                     	;# 
   400  0812                     	;# 
   401  0813                     	;# 
   402  0814                     	;# 
   403  081A                     	;# 
   404  081B                     	;# 
   405  081C                     	;# 
   406  081D                     	;# 
   407  081E                     	;# 
   408  081F                     	;# 
   409  088C                     	;# 
   410  088D                     	;# 
   411  088E                     	;# 
   412  088F                     	;# 
   413  0890                     	;# 
   414  0891                     	;# 
   415  0892                     	;# 
   416  0893                     	;# 
   417  0895                     	;# 
   418  0896                     	;# 
   419  0897                     	;# 
   420  0898                     	;# 
   421  0899                     	;# 
   422  089A                     	;# 
   423  089B                     	;# 
   424  090C                     	;# 
   425  090E                     	;# 
   426  090F                     	;# 
   427  091F                     	;# 
   428  091F                     	;# 
   429  098F                     	;# 
   430  098F                     	;# 
   431  0990                     	;# 
   432  0991                     	;# 
   433  0992                     	;# 
   434  0993                     	;# 
   435  0994                     	;# 
   436  0995                     	;# 
   437  0996                     	;# 
   438  0997                     	;# 
   439  0E0F                     	;# 
   440  0E10                     	;# 
   441  0E11                     	;# 
   442  0E12                     	;# 
   443  0E13                     	;# 
   444  0E14                     	;# 
   445  0E15                     	;# 
   446  0E16                     	;# 
   447  0E17                     	;# 
   448  0E18                     	;# 
   449  0E19                     	;# 
   450  0E1A                     	;# 
   451  0E1B                     	;# 
   452  0E1C                     	;# 
   453  0E1D                     	;# 
   454  0E1E                     	;# 
   455  0E1F                     	;# 
   456  0E20                     	;# 
   457  0E21                     	;# 
   458  0E22                     	;# 
   459  0E23                     	;# 
   460  0E24                     	;# 
   461  0E25                     	;# 
   462  0E26                     	;# 
   463  0E27                     	;# 
   464  0E28                     	;# 
   465  0E29                     	;# 
   466  0E2A                     	;# 
   467  0E2B                     	;# 
   468  0E2C                     	;# 
   469  0E2D                     	;# 
   470  0E2E                     	;# 
   471  0E2F                     	;# 
   472  0E30                     	;# 
   473  0E31                     	;# 
   474  0E32                     	;# 
   475  0E33                     	;# 
   476  0E34                     	;# 
   477  0E35                     	;# 
   478  0E36                     	;# 
   479  0E37                     	;# 
   480  0E8F                     	;# 
   481  0E90                     	;# 
   482  0E91                     	;# 
   483  0E92                     	;# 
   484  0E93                     	;# 
   485  0E94                     	;# 
   486  0E95                     	;# 
   487  0E96                     	;# 
   488  0E97                     	;# 
   489  0E9C                     	;# 
   490  0E9D                     	;# 
   491  0E9E                     	;# 
   492  0EA1                     	;# 
   493  0EA2                     	;# 
   494  0EA3                     	;# 
   495  0EA4                     	;# 
   496  0EA5                     	;# 
   497  0EA9                     	;# 
   498  0EAA                     	;# 
   499  0EAB                     	;# 
   500  0EAC                     	;# 
   501  0EB1                     	;# 
   502  0EB2                     	;# 
   503  0EB3                     	;# 
   504  0EB8                     	;# 
   505  0EB9                     	;# 
   506  0EBA                     	;# 
   507  0EBB                     	;# 
   508  0EBC                     	;# 
   509  0EBD                     	;# 
   510  0EBE                     	;# 
   511  0EC3                     	;# 
   512  0EC5                     	;# 
   513  0EC6                     	;# 
   514  0EC7                     	;# 
   515  0EC8                     	;# 
   516  0EC9                     	;# 
   517  0ECA                     	;# 
   518  0ECB                     	;# 
   519  0ECC                     	;# 
   520  0F10                     	;# 
   521  0F11                     	;# 
   522  0F12                     	;# 
   523  0F13                     	;# 
   524  0F14                     	;# 
   525  0F15                     	;# 
   526  0F16                     	;# 
   527  0F17                     	;# 
   528  0F18                     	;# 
   529  0F19                     	;# 
   530  0F1A                     	;# 
   531  0F1B                     	;# 
   532  0F1C                     	;# 
   533  0F1D                     	;# 
   534  0F1E                     	;# 
   535  0F1F                     	;# 
   536  0F20                     	;# 
   537  0F21                     	;# 
   538  0F22                     	;# 
   539  0F23                     	;# 
   540  0F24                     	;# 
   541  0F25                     	;# 
   542  0F26                     	;# 
   543  0F27                     	;# 
   544  0F28                     	;# 
   545  0F29                     	;# 
   546  0F2A                     	;# 
   547  0F2B                     	;# 
   548  0F2C                     	;# 
   549  0F2D                     	;# 
   550  0F2E                     	;# 
   551  0F2F                     	;# 
   552  0F30                     	;# 
   553  0F31                     	;# 
   554  0F32                     	;# 
   555  0F38                     	;# 
   556  0F39                     	;# 
   557  0F3A                     	;# 
   558  0F3B                     	;# 
   559  0F3C                     	;# 
   560  0F3D                     	;# 
   561  0F3E                     	;# 
   562  0F3F                     	;# 
   563  0F40                     	;# 
   564  0F41                     	;# 
   565  0F43                     	;# 
   566  0F44                     	;# 
   567  0F45                     	;# 
   568  0F46                     	;# 
   569  0F47                     	;# 
   570  0F48                     	;# 
   571  0F49                     	;# 
   572  0F4A                     	;# 
   573  0F4B                     	;# 
   574  0F4C                     	;# 
   575  0F4E                     	;# 
   576  0F4F                     	;# 
   577  0F50                     	;# 
   578  0F51                     	;# 
   579  0F52                     	;# 
   580  0F53                     	;# 
   581  0F54                     	;# 
   582  0F55                     	;# 
   583  0F56                     	;# 
   584  0F57                     	;# 
   585  0F59                     	;# 
   586  0F5A                     	;# 
   587  0F5B                     	;# 
   588  0F5C                     	;# 
   589  0F5D                     	;# 
   590  0F61                     	;# 
   591  0F62                     	;# 
   592  0F64                     	;# 
   593  0F65                     	;# 
   594  0F66                     	;# 
   595  0F67                     	;# 
   596  0F68                     	;# 
   597  0F69                     	;# 
   598  0F6A                     	;# 
   599  0F6B                     	;# 
   600  0F6C                     	;# 
   601  0F6D                     	;# 
   602  0FE4                     	;# 
   603  0FE5                     	;# 
   604  0FE6                     	;# 
   605  0FE7                     	;# 
   606  0FE8                     	;# 
   607  0FE9                     	;# 
   608  0FEA                     	;# 
   609  0FEB                     	;# 
   610  0FED                     	;# 
   611  0FEE                     	;# 
   612  0FEF                     	;# 
   613  0000                     	;# 
   614  0001                     	;# 
   615  0002                     	;# 
   616  0003                     	;# 
   617  0004                     	;# 
   618  0005                     	;# 
   619  0006                     	;# 
   620  0007                     	;# 
   621  0008                     	;# 
   622  0009                     	;# 
   623  000A                     	;# 
   624  000B                     	;# 
   625  000C                     	;# 
   626  000D                     	;# 
   627  000E                     	;# 
   628  000F                     	;# 
   629  0010                     	;# 
   630  0011                     	;# 
   631  0012                     	;# 
   632  0013                     	;# 
   633  0014                     	;# 
   634  0015                     	;# 
   635  0016                     	;# 
   636  0017                     	;# 
   637  0018                     	;# 
   638  0019                     	;# 
   639  001A                     	;# 
   640  001C                     	;# 
   641  001C                     	;# 
   642  001D                     	;# 
   643  001D                     	;# 
   644  001E                     	;# 
   645  001F                     	;# 
   646  008C                     	;# 
   647  008C                     	;# 
   648  008D                     	;# 
   649  008E                     	;# 
   650  008E                     	;# 
   651  008F                     	;# 
   652  0090                     	;# 
   653  0090                     	;# 
   654  0091                     	;# 
   655  0093                     	;# 
   656  0094                     	;# 
   657  0095                     	;# 
   658  0096                     	;# 
   659  0097                     	;# 
   660  0098                     	;# 
   661  0099                     	;# 
   662  009A                     	;# 
   663  009B                     	;# 
   664  009C                     	;# 
   665  009D                     	;# 
   666  009E                     	;# 
   667  010C                     	;# 
   668  010D                     	;# 
   669  010E                     	;# 
   670  010E                     	;# 
   671  010F                     	;# 
   672  0110                     	;# 
   673  0110                     	;# 
   674  0111                     	;# 
   675  0112                     	;# 
   676  0112                     	;# 
   677  0113                     	;# 
   678  0114                     	;# 
   679  0114                     	;# 
   680  0115                     	;# 
   681  0116                     	;# 
   682  0116                     	;# 
   683  0117                     	;# 
   684  0119                     	;# 
   685  0119                     	;# 
   686  0119                     	;# 
   687  011A                     	;# 
   688  011A                     	;# 
   689  011A                     	;# 
   690  011B                     	;# 
   691  011B                     	;# 
   692  011B                     	;# 
   693  011B                     	;# 
   694  011B                     	;# 
   695  011C                     	;# 
   696  011C                     	;# 
   697  011C                     	;# 
   698  011D                     	;# 
   699  011D                     	;# 
   700  011D                     	;# 
   701  011E                     	;# 
   702  011E                     	;# 
   703  011E                     	;# 
   704  011F                     	;# 
   705  011F                     	;# 
   706  011F                     	;# 
   707  011F                     	;# 
   708  011F                     	;# 
   709  018C                     	;# 
   710  018D                     	;# 
   711  018E                     	;# 
   712  018F                     	;# 
   713  0190                     	;# 
   714  0191                     	;# 
   715  0192                     	;# 
   716  0196                     	;# 
   717  0197                     	;# 
   718  0198                     	;# 
   719  0199                     	;# 
   720  019A                     	;# 
   721  019B                     	;# 
   722  019C                     	;# 
   723  020C                     	;# 
   724  020C                     	;# 
   725  020D                     	;# 
   726  020E                     	;# 
   727  020F                     	;# 
   728  020F                     	;# 
   729  0210                     	;# 
   730  0210                     	;# 
   731  0211                     	;# 
   732  0211                     	;# 
   733  0212                     	;# 
   734  0212                     	;# 
   735  0213                     	;# 
   736  0214                     	;# 
   737  0215                     	;# 
   738  0215                     	;# 
   739  0216                     	;# 
   740  0216                     	;# 
   741  0217                     	;# 
   742  0217                     	;# 
   743  0218                     	;# 
   744  0218                     	;# 
   745  0219                     	;# 
   746  021A                     	;# 
   747  021B                     	;# 
   748  021B                     	;# 
   749  021C                     	;# 
   750  021C                     	;# 
   751  021D                     	;# 
   752  021D                     	;# 
   753  021E                     	;# 
   754  021F                     	;# 
   755  028C                     	;# 
   756  028C                     	;# 
   757  028D                     	;# 
   758  028D                     	;# 
   759  028E                     	;# 
   760  028F                     	;# 
   761  0290                     	;# 
   762  0290                     	;# 
   763  0291                     	;# 
   764  0292                     	;# 
   765  0292                     	;# 
   766  0293                     	;# 
   767  0293                     	;# 
   768  0294                     	;# 
   769  0295                     	;# 
   770  0296                     	;# 
   771  0296                     	;# 
   772  0297                     	;# 
   773  0298                     	;# 
   774  0298                     	;# 
   775  0299                     	;# 
   776  0299                     	;# 
   777  029A                     	;# 
   778  029B                     	;# 
   779  029C                     	;# 
   780  029C                     	;# 
   781  029D                     	;# 
   782  030C                     	;# 
   783  030C                     	;# 
   784  030D                     	;# 
   785  030E                     	;# 
   786  030F                     	;# 
   787  0310                     	;# 
   788  0310                     	;# 
   789  0311                     	;# 
   790  0312                     	;# 
   791  0313                     	;# 
   792  0314                     	;# 
   793  0314                     	;# 
   794  0315                     	;# 
   795  0316                     	;# 
   796  0317                     	;# 
   797  0318                     	;# 
   798  0318                     	;# 
   799  0319                     	;# 
   800  031A                     	;# 
   801  031B                     	;# 
   802  031C                     	;# 
   803  031C                     	;# 
   804  031D                     	;# 
   805  031E                     	;# 
   806  031F                     	;# 
   807  038C                     	;# 
   808  038C                     	;# 
   809  038D                     	;# 
   810  038E                     	;# 
   811  0390                     	;# 
   812  0390                     	;# 
   813  0391                     	;# 
   814  0392                     	;# 
   815  040C                     	;# 
   816  040D                     	;# 
   817  040E                     	;# 
   818  040F                     	;# 
   819  0410                     	;# 
   820  0411                     	;# 
   821  0416                     	;# 
   822  0416                     	;# 
   823  0417                     	;# 
   824  0418                     	;# 
   825  0418                     	;# 
   826  0419                     	;# 
   827  041A                     	;# 
   828  041A                     	;# 
   829  041B                     	;# 
   830  041C                     	;# 
   831  041C                     	;# 
   832  041D                     	;# 
   833  041E                     	;# 
   834  041F                     	;# 
   835  048C                     	;# 
   836  048C                     	;# 
   837  048D                     	;# 
   838  048E                     	;# 
   839  048F                     	;# 
   840  048F                     	;# 
   841  0490                     	;# 
   842  0491                     	;# 
   843  0492                     	;# 
   844  0492                     	;# 
   845  0493                     	;# 
   846  0494                     	;# 
   847  0495                     	;# 
   848  0495                     	;# 
   849  0496                     	;# 
   850  0497                     	;# 
   851  0498                     	;# 
   852  0499                     	;# 
   853  049A                     	;# 
   854  049B                     	;# 
   855  049C                     	;# 
   856  049D                     	;# 
   857  050C                     	;# 
   858  050C                     	;# 
   859  050D                     	;# 
   860  050E                     	;# 
   861  050F                     	;# 
   862  050F                     	;# 
   863  0510                     	;# 
   864  0511                     	;# 
   865  0512                     	;# 
   866  0512                     	;# 
   867  0513                     	;# 
   868  0514                     	;# 
   869  0515                     	;# 
   870  0515                     	;# 
   871  0516                     	;# 
   872  0517                     	;# 
   873  0518                     	;# 
   874  0519                     	;# 
   875  051A                     	;# 
   876  051B                     	;# 
   877  051C                     	;# 
   878  051D                     	;# 
   879  058C                     	;# 
   880  058C                     	;# 
   881  058D                     	;# 
   882  058E                     	;# 
   883  058F                     	;# 
   884  058F                     	;# 
   885  0590                     	;# 
   886  0591                     	;# 
   887  0592                     	;# 
   888  0593                     	;# 
   889  060C                     	;# 
   890  060D                     	;# 
   891  060E                     	;# 
   892  060F                     	;# 
   893  0610                     	;# 
   894  0611                     	;# 
   895  0612                     	;# 
   896  0613                     	;# 
   897  0614                     	;# 
   898  0616                     	;# 
   899  0617                     	;# 
   900  0618                     	;# 
   901  0619                     	;# 
   902  061A                     	;# 
   903  061B                     	;# 
   904  061C                     	;# 
   905  061D                     	;# 
   906  061E                     	;# 
   907  068C                     	;# 
   908  068D                     	;# 
   909  068E                     	;# 
   910  068F                     	;# 
   911  0690                     	;# 
   912  0691                     	;# 
   913  0692                     	;# 
   914  0693                     	;# 
   915  0694                     	;# 
   916  070C                     	;# 
   917  070D                     	;# 
   918  070E                     	;# 
   919  070F                     	;# 
   920  0710                     	;# 
   921  0711                     	;# 
   922  0712                     	;# 
   923  0713                     	;# 
   924  0714                     	;# 
   925  0716                     	;# 
   926  0717                     	;# 
   927  0718                     	;# 
   928  0719                     	;# 
   929  071A                     	;# 
   930  071B                     	;# 
   931  071C                     	;# 
   932  071D                     	;# 
   933  071E                     	;# 
   934  0796                     	;# 
   935  0797                     	;# 
   936  0798                     	;# 
   937  0799                     	;# 
   938  079A                     	;# 
   939  079B                     	;# 
   940  080C                     	;# 
   941  080D                     	;# 
   942  080E                     	;# 
   943  080F                     	;# 
   944  0810                     	;# 
   945  0811                     	;# 
   946  0812                     	;# 
   947  0813                     	;# 
   948  0814                     	;# 
   949  081A                     	;# 
   950  081B                     	;# 
   951  081C                     	;# 
   952  081D                     	;# 
   953  081E                     	;# 
   954  081F                     	;# 
   955  088C                     	;# 
   956  088D                     	;# 
   957  088E                     	;# 
   958  088F                     	;# 
   959  0890                     	;# 
   960  0891                     	;# 
   961  0892                     	;# 
   962  0893                     	;# 
   963  0895                     	;# 
   964  0896                     	;# 
   965  0897                     	;# 
   966  0898                     	;# 
   967  0899                     	;# 
   968  089A                     	;# 
   969  089B                     	;# 
   970  090C                     	;# 
   971  090E                     	;# 
   972  090F                     	;# 
   973  091F                     	;# 
   974  091F                     	;# 
   975  098F                     	;# 
   976  098F                     	;# 
   977  0990                     	;# 
   978  0991                     	;# 
   979  0992                     	;# 
   980  0993                     	;# 
   981  0994                     	;# 
   982  0995                     	;# 
   983  0996                     	;# 
   984  0997                     	;# 
   985  0E0F                     	;# 
   986  0E10                     	;# 
   987  0E11                     	;# 
   988  0E12                     	;# 
   989  0E13                     	;# 
   990  0E14                     	;# 
   991  0E15                     	;# 
   992  0E16                     	;# 
   993  0E17                     	;# 
   994  0E18                     	;# 
   995  0E19                     	;# 
   996  0E1A                     	;# 
   997  0E1B                     	;# 
   998  0E1C                     	;# 
   999  0E1D                     	;# 
  1000  0E1E                     	;# 
  1001  0E1F                     	;# 
  1002  0E20                     	;# 
  1003  0E21                     	;# 
  1004  0E22                     	;# 
  1005  0E23                     	;# 
  1006  0E24                     	;# 
  1007  0E25                     	;# 
  1008  0E26                     	;# 
  1009  0E27                     	;# 
  1010  0E28                     	;# 
  1011  0E29                     	;# 
  1012  0E2A                     	;# 
  1013  0E2B                     	;# 
  1014  0E2C                     	;# 
  1015  0E2D                     	;# 
  1016  0E2E                     	;# 
  1017  0E2F                     	;# 
  1018  0E30                     	;# 
  1019  0E31                     	;# 
  1020  0E32                     	;# 
  1021  0E33                     	;# 
  1022  0E34                     	;# 
  1023  0E35                     	;# 
  1024  0E36                     	;# 
  1025  0E37                     	;# 
  1026  0E8F                     	;# 
  1027  0E90                     	;# 
  1028  0E91                     	;# 
  1029  0E92                     	;# 
  1030  0E93                     	;# 
  1031  0E94                     	;# 
  1032  0E95                     	;# 
  1033  0E96                     	;# 
  1034  0E97                     	;# 
  1035  0E9C                     	;# 
  1036  0E9D                     	;# 
  1037  0E9E                     	;# 
  1038  0EA1                     	;# 
  1039  0EA2                     	;# 
  1040  0EA3                     	;# 
  1041  0EA4                     	;# 
  1042  0EA5                     	;# 
  1043  0EA9                     	;# 
  1044  0EAA                     	;# 
  1045  0EAB                     	;# 
  1046  0EAC                     	;# 
  1047  0EB1                     	;# 
  1048  0EB2                     	;# 
  1049  0EB3                     	;# 
  1050  0EB8                     	;# 
  1051  0EB9                     	;# 
  1052  0EBA                     	;# 
  1053  0EBB                     	;# 
  1054  0EBC                     	;# 
  1055  0EBD                     	;# 
  1056  0EBE                     	;# 
  1057  0EC3                     	;# 
  1058  0EC5                     	;# 
  1059  0EC6                     	;# 
  1060  0EC7                     	;# 
  1061  0EC8                     	;# 
  1062  0EC9                     	;# 
  1063  0ECA                     	;# 
  1064  0ECB                     	;# 
  1065  0ECC                     	;# 
  1066  0F10                     	;# 
  1067  0F11                     	;# 
  1068  0F12                     	;# 
  1069  0F13                     	;# 
  1070  0F14                     	;# 
  1071  0F15                     	;# 
  1072  0F16                     	;# 
  1073  0F17                     	;# 
  1074  0F18                     	;# 
  1075  0F19                     	;# 
  1076  0F1A                     	;# 
  1077  0F1B                     	;# 
  1078  0F1C                     	;# 
  1079  0F1D                     	;# 
  1080  0F1E                     	;# 
  1081  0F1F                     	;# 
  1082  0F20                     	;# 
  1083  0F21                     	;# 
  1084  0F22                     	;# 
  1085  0F23                     	;# 
  1086  0F24                     	;# 
  1087  0F25                     	;# 
  1088  0F26                     	;# 
  1089  0F27                     	;# 
  1090  0F28                     	;# 
  1091  0F29                     	;# 
  1092  0F2A                     	;# 
  1093  0F2B                     	;# 
  1094  0F2C                     	;# 
  1095  0F2D                     	;# 
  1096  0F2E                     	;# 
  1097  0F2F                     	;# 
  1098  0F30                     	;# 
  1099  0F31                     	;# 
  1100  0F32                     	;# 
  1101  0F38                     	;# 
  1102  0F39                     	;# 
  1103  0F3A                     	;# 
  1104  0F3B                     	;# 
  1105  0F3C                     	;# 
  1106  0F3D                     	;# 
  1107  0F3E                     	;# 
  1108  0F3F                     	;# 
  1109  0F40                     	;# 
  1110  0F41                     	;# 
  1111  0F43                     	;# 
  1112  0F44                     	;# 
  1113  0F45                     	;# 
  1114  0F46                     	;# 
  1115  0F47                     	;# 
  1116  0F48                     	;# 
  1117  0F49                     	;# 
  1118  0F4A                     	;# 
  1119  0F4B                     	;# 
  1120  0F4C                     	;# 
  1121  0F4E                     	;# 
  1122  0F4F                     	;# 
  1123  0F50                     	;# 
  1124  0F51                     	;# 
  1125  0F52                     	;# 
  1126  0F53                     	;# 
  1127  0F54                     	;# 
  1128  0F55                     	;# 
  1129  0F56                     	;# 
  1130  0F57                     	;# 
  1131  0F59                     	;# 
  1132  0F5A                     	;# 
  1133  0F5B                     	;# 
  1134  0F5C                     	;# 
  1135  0F5D                     	;# 
  1136  0F61                     	;# 
  1137  0F62                     	;# 
  1138  0F64                     	;# 
  1139  0F65                     	;# 
  1140  0F66                     	;# 
  1141  0F67                     	;# 
  1142  0F68                     	;# 
  1143  0F69                     	;# 
  1144  0F6A                     	;# 
  1145  0F6B                     	;# 
  1146  0F6C                     	;# 
  1147  0F6D                     	;# 
  1148  0FE4                     	;# 
  1149  0FE5                     	;# 
  1150  0FE6                     	;# 
  1151  0FE7                     	;# 
  1152  0FE8                     	;# 
  1153  0FE9                     	;# 
  1154  0FEA                     	;# 
  1155  0FEB                     	;# 
  1156  0FED                     	;# 
  1157  0FEE                     	;# 
  1158  0FEF                     	;# 
  1159  0000                     	;# 
  1160  0001                     	;# 
  1161  0002                     	;# 
  1162  0003                     	;# 
  1163  0004                     	;# 
  1164  0005                     	;# 
  1165  0006                     	;# 
  1166  0007                     	;# 
  1167  0008                     	;# 
  1168  0009                     	;# 
  1169  000A                     	;# 
  1170  000B                     	;# 
  1171  000C                     	;# 
  1172  000D                     	;# 
  1173  000E                     	;# 
  1174  000F                     	;# 
  1175  0010                     	;# 
  1176  0011                     	;# 
  1177  0012                     	;# 
  1178  0013                     	;# 
  1179  0014                     	;# 
  1180  0015                     	;# 
  1181  0016                     	;# 
  1182  0017                     	;# 
  1183  0018                     	;# 
  1184  0019                     	;# 
  1185  001A                     	;# 
  1186  001C                     	;# 
  1187  001C                     	;# 
  1188  001D                     	;# 
  1189  001D                     	;# 
  1190  001E                     	;# 
  1191  001F                     	;# 
  1192  008C                     	;# 
  1193  008C                     	;# 
  1194  008D                     	;# 
  1195  008E                     	;# 
  1196  008E                     	;# 
  1197  008F                     	;# 
  1198  0090                     	;# 
  1199  0090                     	;# 
  1200  0091                     	;# 
  1201  0093                     	;# 
  1202  0094                     	;# 
  1203  0095                     	;# 
  1204  0096                     	;# 
  1205  0097                     	;# 
  1206  0098                     	;# 
  1207  0099                     	;# 
  1208  009A                     	;# 
  1209  009B                     	;# 
  1210  009C                     	;# 
  1211  009D                     	;# 
  1212  009E                     	;# 
  1213  010C                     	;# 
  1214  010D                     	;# 
  1215  010E                     	;# 
  1216  010E                     	;# 
  1217  010F                     	;# 
  1218  0110                     	;# 
  1219  0110                     	;# 
  1220  0111                     	;# 
  1221  0112                     	;# 
  1222  0112                     	;# 
  1223  0113                     	;# 
  1224  0114                     	;# 
  1225  0114                     	;# 
  1226  0115                     	;# 
  1227  0116                     	;# 
  1228  0116                     	;# 
  1229  0117                     	;# 
  1230  0119                     	;# 
  1231  0119                     	;# 
  1232  0119                     	;# 
  1233  011A                     	;# 
  1234  011A                     	;# 
  1235  011A                     	;# 
  1236  011B                     	;# 
  1237  011B                     	;# 
  1238  011B                     	;# 
  1239  011B                     	;# 
  1240  011B                     	;# 
  1241  011C                     	;# 
  1242  011C                     	;# 
  1243  011C                     	;# 
  1244  011D                     	;# 
  1245  011D                     	;# 
  1246  011D                     	;# 
  1247  011E                     	;# 
  1248  011E                     	;# 
  1249  011E                     	;# 
  1250  011F                     	;# 
  1251  011F                     	;# 
  1252  011F                     	;# 
  1253  011F                     	;# 
  1254  011F                     	;# 
  1255  018C                     	;# 
  1256  018D                     	;# 
  1257  018E                     	;# 
  1258  018F                     	;# 
  1259  0190                     	;# 
  1260  0191                     	;# 
  1261  0192                     	;# 
  1262  0196                     	;# 
  1263  0197                     	;# 
  1264  0198                     	;# 
  1265  0199                     	;# 
  1266  019A                     	;# 
  1267  019B                     	;# 
  1268  019C                     	;# 
  1269  020C                     	;# 
  1270  020C                     	;# 
  1271  020D                     	;# 
  1272  020E                     	;# 
  1273  020F                     	;# 
  1274  020F                     	;# 
  1275  0210                     	;# 
  1276  0210                     	;# 
  1277  0211                     	;# 
  1278  0211                     	;# 
  1279  0212                     	;# 
  1280  0212                     	;# 
  1281  0213                     	;# 
  1282  0214                     	;# 
  1283  0215                     	;# 
  1284  0215                     	;# 
  1285  0216                     	;# 
  1286  0216                     	;# 
  1287  0217                     	;# 
  1288  0217                     	;# 
  1289  0218                     	;# 
  1290  0218                     	;# 
  1291  0219                     	;# 
  1292  021A                     	;# 
  1293  021B                     	;# 
  1294  021B                     	;# 
  1295  021C                     	;# 
  1296  021C                     	;# 
  1297  021D                     	;# 
  1298  021D                     	;# 
  1299  021E                     	;# 
  1300  021F                     	;# 
  1301  028C                     	;# 
  1302  028C                     	;# 
  1303  028D                     	;# 
  1304  028D                     	;# 
  1305  028E                     	;# 
  1306  028F                     	;# 
  1307  0290                     	;# 
  1308  0290                     	;# 
  1309  0291                     	;# 
  1310  0292                     	;# 
  1311  0292                     	;# 
  1312  0293                     	;# 
  1313  0293                     	;# 
  1314  0294                     	;# 
  1315  0295                     	;# 
  1316  0296                     	;# 
  1317  0296                     	;# 
  1318  0297                     	;# 
  1319  0298                     	;# 
  1320  0298                     	;# 
  1321  0299                     	;# 
  1322  0299                     	;# 
  1323  029A                     	;# 
  1324  029B                     	;# 
  1325  029C                     	;# 
  1326  029C                     	;# 
  1327  029D                     	;# 
  1328  030C                     	;# 
  1329  030C                     	;# 
  1330  030D                     	;# 
  1331  030E                     	;# 
  1332  030F                     	;# 
  1333  0310                     	;# 
  1334  0310                     	;# 
  1335  0311                     	;# 
  1336  0312                     	;# 
  1337  0313                     	;# 
  1338  0314                     	;# 
  1339  0314                     	;# 
  1340  0315                     	;# 
  1341  0316                     	;# 
  1342  0317                     	;# 
  1343  0318                     	;# 
  1344  0318                     	;# 
  1345  0319                     	;# 
  1346  031A                     	;# 
  1347  031B                     	;# 
  1348  031C                     	;# 
  1349  031C                     	;# 
  1350  031D                     	;# 
  1351  031E                     	;# 
  1352  031F                     	;# 
  1353  038C                     	;# 
  1354  038C                     	;# 
  1355  038D                     	;# 
  1356  038E                     	;# 
  1357  0390                     	;# 
  1358  0390                     	;# 
  1359  0391                     	;# 
  1360  0392                     	;# 
  1361  040C                     	;# 
  1362  040D                     	;# 
  1363  040E                     	;# 
  1364  040F                     	;# 
  1365  0410                     	;# 
  1366  0411                     	;# 
  1367  0416                     	;# 
  1368  0416                     	;# 
  1369  0417                     	;# 
  1370  0418                     	;# 
  1371  0418                     	;# 
  1372  0419                     	;# 
  1373  041A                     	;# 
  1374  041A                     	;# 
  1375  041B                     	;# 
  1376  041C                     	;# 
  1377  041C                     	;# 
  1378  041D                     	;# 
  1379  041E                     	;# 
  1380  041F                     	;# 
  1381  048C                     	;# 
  1382  048C                     	;# 
  1383  048D                     	;# 
  1384  048E                     	;# 
  1385  048F                     	;# 
  1386  048F                     	;# 
  1387  0490                     	;# 
  1388  0491                     	;# 
  1389  0492                     	;# 
  1390  0492                     	;# 
  1391  0493                     	;# 
  1392  0494                     	;# 
  1393  0495                     	;# 
  1394  0495                     	;# 
  1395  0496                     	;# 
  1396  0497                     	;# 
  1397  0498                     	;# 
  1398  0499                     	;# 
  1399  049A                     	;# 
  1400  049B                     	;# 
  1401  049C                     	;# 
  1402  049D                     	;# 
  1403  050C                     	;# 
  1404  050C                     	;# 
  1405  050D                     	;# 
  1406  050E                     	;# 
  1407  050F                     	;# 
  1408  050F                     	;# 
  1409  0510                     	;# 
  1410  0511                     	;# 
  1411  0512                     	;# 
  1412  0512                     	;# 
  1413  0513                     	;# 
  1414  0514                     	;# 
  1415  0515                     	;# 
  1416  0515                     	;# 
  1417  0516                     	;# 
  1418  0517                     	;# 
  1419  0518                     	;# 
  1420  0519                     	;# 
  1421  051A                     	;# 
  1422  051B                     	;# 
  1423  051C                     	;# 
  1424  051D                     	;# 
  1425  058C                     	;# 
  1426  058C                     	;# 
  1427  058D                     	;# 
  1428  058E                     	;# 
  1429  058F                     	;# 
  1430  058F                     	;# 
  1431  0590                     	;# 
  1432  0591                     	;# 
  1433  0592                     	;# 
  1434  0593                     	;# 
  1435  060C                     	;# 
  1436  060D                     	;# 
  1437  060E                     	;# 
  1438  060F                     	;# 
  1439  0610                     	;# 
  1440  0611                     	;# 
  1441  0612                     	;# 
  1442  0613                     	;# 
  1443  0614                     	;# 
  1444  0616                     	;# 
  1445  0617                     	;# 
  1446  0618                     	;# 
  1447  0619                     	;# 
  1448  061A                     	;# 
  1449  061B                     	;# 
  1450  061C                     	;# 
  1451  061D                     	;# 
  1452  061E                     	;# 
  1453  068C                     	;# 
  1454  068D                     	;# 
  1455  068E                     	;# 
  1456  068F                     	;# 
  1457  0690                     	;# 
  1458  0691                     	;# 
  1459  0692                     	;# 
  1460  0693                     	;# 
  1461  0694                     	;# 
  1462  070C                     	;# 
  1463  070D                     	;# 
  1464  070E                     	;# 
  1465  070F                     	;# 
  1466  0710                     	;# 
  1467  0711                     	;# 
  1468  0712                     	;# 
  1469  0713                     	;# 
  1470  0714                     	;# 
  1471  0716                     	;# 
  1472  0717                     	;# 
  1473  0718                     	;# 
  1474  0719                     	;# 
  1475  071A                     	;# 
  1476  071B                     	;# 
  1477  071C                     	;# 
  1478  071D                     	;# 
  1479  071E                     	;# 
  1480  0796                     	;# 
  1481  0797                     	;# 
  1482  0798                     	;# 
  1483  0799                     	;# 
  1484  079A                     	;# 
  1485  079B                     	;# 
  1486  080C                     	;# 
  1487  080D                     	;# 
  1488  080E                     	;# 
  1489  080F                     	;# 
  1490  0810                     	;# 
  1491  0811                     	;# 
  1492  0812                     	;# 
  1493  0813                     	;# 
  1494  0814                     	;# 
  1495  081A                     	;# 
  1496  081B                     	;# 
  1497  081C                     	;# 
  1498  081D                     	;# 
  1499  081E                     	;# 
  1500  081F                     	;# 
  1501  088C                     	;# 
  1502  088D                     	;# 
  1503  088E                     	;# 
  1504  088F                     	;# 
  1505  0890                     	;# 
  1506  0891                     	;# 
  1507  0892                     	;# 
  1508  0893                     	;# 
  1509  0895                     	;# 
  1510  0896                     	;# 
  1511  0897                     	;# 
  1512  0898                     	;# 
  1513  0899                     	;# 
  1514  089A                     	;# 
  1515  089B                     	;# 
  1516  090C                     	;# 
  1517  090E                     	;# 
  1518  090F                     	;# 
  1519  091F                     	;# 
  1520  091F                     	;# 
  1521  098F                     	;# 
  1522  098F                     	;# 
  1523  0990                     	;# 
  1524  0991                     	;# 
  1525  0992                     	;# 
  1526  0993                     	;# 
  1527  0994                     	;# 
  1528  0995                     	;# 
  1529  0996                     	;# 
  1530  0997                     	;# 
  1531  0E0F                     	;# 
  1532  0E10                     	;# 
  1533  0E11                     	;# 
  1534  0E12                     	;# 
  1535  0E13                     	;# 
  1536  0E14                     	;# 
  1537  0E15                     	;# 
  1538  0E16                     	;# 
  1539  0E17                     	;# 
  1540  0E18                     	;# 
  1541  0E19                     	;# 
  1542  0E1A                     	;# 
  1543  0E1B                     	;# 
  1544  0E1C                     	;# 
  1545  0E1D                     	;# 
  1546  0E1E                     	;# 
  1547  0E1F                     	;# 
  1548  0E20                     	;# 
  1549  0E21                     	;# 
  1550  0E22                     	;# 
  1551  0E23                     	;# 
  1552  0E24                     	;# 
  1553  0E25                     	;# 
  1554  0E26                     	;# 
  1555  0E27                     	;# 
  1556  0E28                     	;# 
  1557  0E29                     	;# 
  1558  0E2A                     	;# 
  1559  0E2B                     	;# 
  1560  0E2C                     	;# 
  1561  0E2D                     	;# 
  1562  0E2E                     	;# 
  1563  0E2F                     	;# 
  1564  0E30                     	;# 
  1565  0E31                     	;# 
  1566  0E32                     	;# 
  1567  0E33                     	;# 
  1568  0E34                     	;# 
  1569  0E35                     	;# 
  1570  0E36                     	;# 
  1571  0E37                     	;# 
  1572  0E8F                     	;# 
  1573  0E90                     	;# 
  1574  0E91                     	;# 
  1575  0E92                     	;# 
  1576  0E93                     	;# 
  1577  0E94                     	;# 
  1578  0E95                     	;# 
  1579  0E96                     	;# 
  1580  0E97                     	;# 
  1581  0E9C                     	;# 
  1582  0E9D                     	;# 
  1583  0E9E                     	;# 
  1584  0EA1                     	;# 
  1585  0EA2                     	;# 
  1586  0EA3                     	;# 
  1587  0EA4                     	;# 
  1588  0EA5                     	;# 
  1589  0EA9                     	;# 
  1590  0EAA                     	;# 
  1591  0EAB                     	;# 
  1592  0EAC                     	;# 
  1593  0EB1                     	;# 
  1594  0EB2                     	;# 
  1595  0EB3                     	;# 
  1596  0EB8                     	;# 
  1597  0EB9                     	;# 
  1598  0EBA                     	;# 
  1599  0EBB                     	;# 
  1600  0EBC                     	;# 
  1601  0EBD                     	;# 
  1602  0EBE                     	;# 
  1603  0EC3                     	;# 
  1604  0EC5                     	;# 
  1605  0EC6                     	;# 
  1606  0EC7                     	;# 
  1607  0EC8                     	;# 
  1608  0EC9                     	;# 
  1609  0ECA                     	;# 
  1610  0ECB                     	;# 
  1611  0ECC                     	;# 
  1612  0F10                     	;# 
  1613  0F11                     	;# 
  1614  0F12                     	;# 
  1615  0F13                     	;# 
  1616  0F14                     	;# 
  1617  0F15                     	;# 
  1618  0F16                     	;# 
  1619  0F17                     	;# 
  1620  0F18                     	;# 
  1621  0F19                     	;# 
  1622  0F1A                     	;# 
  1623  0F1B                     	;# 
  1624  0F1C                     	;# 
  1625  0F1D                     	;# 
  1626  0F1E                     	;# 
  1627  0F1F                     	;# 
  1628  0F20                     	;# 
  1629  0F21                     	;# 
  1630  0F22                     	;# 
  1631  0F23                     	;# 
  1632  0F24                     	;# 
  1633  0F25                     	;# 
  1634  0F26                     	;# 
  1635  0F27                     	;# 
  1636  0F28                     	;# 
  1637  0F29                     	;# 
  1638  0F2A                     	;# 
  1639  0F2B                     	;# 
  1640  0F2C                     	;# 
  1641  0F2D                     	;# 
  1642  0F2E                     	;# 
  1643  0F2F                     	;# 
  1644  0F30                     	;# 
  1645  0F31                     	;# 
  1646  0F32                     	;# 
  1647  0F38                     	;# 
  1648  0F39                     	;# 
  1649  0F3A                     	;# 
  1650  0F3B                     	;# 
  1651  0F3C                     	;# 
  1652  0F3D                     	;# 
  1653  0F3E                     	;# 
  1654  0F3F                     	;# 
  1655  0F40                     	;# 
  1656  0F41                     	;# 
  1657  0F43                     	;# 
  1658  0F44                     	;# 
  1659  0F45                     	;# 
  1660  0F46                     	;# 
  1661  0F47                     	;# 
  1662  0F48                     	;# 
  1663  0F49                     	;# 
  1664  0F4A                     	;# 
  1665  0F4B                     	;# 
  1666  0F4C                     	;# 
  1667  0F4E                     	;# 
  1668  0F4F                     	;# 
  1669  0F50                     	;# 
  1670  0F51                     	;# 
  1671  0F52                     	;# 
  1672  0F53                     	;# 
  1673  0F54                     	;# 
  1674  0F55                     	;# 
  1675  0F56                     	;# 
  1676  0F57                     	;# 
  1677  0F59                     	;# 
  1678  0F5A                     	;# 
  1679  0F5B                     	;# 
  1680  0F5C                     	;# 
  1681  0F5D                     	;# 
  1682  0F61                     	;# 
  1683  0F62                     	;# 
  1684  0F64                     	;# 
  1685  0F65                     	;# 
  1686  0F66                     	;# 
  1687  0F67                     	;# 
  1688  0F68                     	;# 
  1689  0F69                     	;# 
  1690  0F6A                     	;# 
  1691  0F6B                     	;# 
  1692  0F6C                     	;# 
  1693  0F6D                     	;# 
  1694  0FE4                     	;# 
  1695  0FE5                     	;# 
  1696  0FE6                     	;# 
  1697  0FE7                     	;# 
  1698  0FE8                     	;# 
  1699  0FE9                     	;# 
  1700  0FEA                     	;# 
  1701  0FEB                     	;# 
  1702  0FED                     	;# 
  1703  0FEE                     	;# 
  1704  0FEF                     	;# 
  1705  0000                     	;# 
  1706  0001                     	;# 
  1707  0002                     	;# 
  1708  0003                     	;# 
  1709  0004                     	;# 
  1710  0005                     	;# 
  1711  0006                     	;# 
  1712  0007                     	;# 
  1713  0008                     	;# 
  1714  0009                     	;# 
  1715  000A                     	;# 
  1716  000B                     	;# 
  1717  000C                     	;# 
  1718  000D                     	;# 
  1719  000E                     	;# 
  1720  000F                     	;# 
  1721  0010                     	;# 
  1722  0011                     	;# 
  1723  0012                     	;# 
  1724  0013                     	;# 
  1725  0014                     	;# 
  1726  0015                     	;# 
  1727  0016                     	;# 
  1728  0017                     	;# 
  1729  0018                     	;# 
  1730  0019                     	;# 
  1731  001A                     	;# 
  1732  001C                     	;# 
  1733  001C                     	;# 
  1734  001D                     	;# 
  1735  001D                     	;# 
  1736  001E                     	;# 
  1737  001F                     	;# 
  1738  008C                     	;# 
  1739  008C                     	;# 
  1740  008D                     	;# 
  1741  008E                     	;# 
  1742  008E                     	;# 
  1743  008F                     	;# 
  1744  0090                     	;# 
  1745  0090                     	;# 
  1746  0091                     	;# 
  1747  0093                     	;# 
  1748  0094                     	;# 
  1749  0095                     	;# 
  1750  0096                     	;# 
  1751  0097                     	;# 
  1752  0098                     	;# 
  1753  0099                     	;# 
  1754  009A                     	;# 
  1755  009B                     	;# 
  1756  009C                     	;# 
  1757  009D                     	;# 
  1758  009E                     	;# 
  1759  010C                     	;# 
  1760  010D                     	;# 
  1761  010E                     	;# 
  1762  010E                     	;# 
  1763  010F                     	;# 
  1764  0110                     	;# 
  1765  0110                     	;# 
  1766  0111                     	;# 
  1767  0112                     	;# 
  1768  0112                     	;# 
  1769  0113                     	;# 
  1770  0114                     	;# 
  1771  0114                     	;# 
  1772  0115                     	;# 
  1773  0116                     	;# 
  1774  0116                     	;# 
  1775  0117                     	;# 
  1776  0119                     	;# 
  1777  0119                     	;# 
  1778  0119                     	;# 
  1779  011A                     	;# 
  1780  011A                     	;# 
  1781  011A                     	;# 
  1782  011B                     	;# 
  1783  011B                     	;# 
  1784  011B                     	;# 
  1785  011B                     	;# 
  1786  011B                     	;# 
  1787  011C                     	;# 
  1788  011C                     	;# 
  1789  011C                     	;# 
  1790  011D                     	;# 
  1791  011D                     	;# 
  1792  011D                     	;# 
  1793  011E                     	;# 
  1794  011E                     	;# 
  1795  011E                     	;# 
  1796  011F                     	;# 
  1797  011F                     	;# 
  1798  011F                     	;# 
  1799  011F                     	;# 
  1800  011F                     	;# 
  1801  018C                     	;# 
  1802  018D                     	;# 
  1803  018E                     	;# 
  1804  018F                     	;# 
  1805  0190                     	;# 
  1806  0191                     	;# 
  1807  0192                     	;# 
  1808  0196                     	;# 
  1809  0197                     	;# 
  1810  0198                     	;# 
  1811  0199                     	;# 
  1812  019A                     	;# 
  1813  019B                     	;# 
  1814  019C                     	;# 
  1815  020C                     	;# 
  1816  020C                     	;# 
  1817  020D                     	;# 
  1818  020E                     	;# 
  1819  020F                     	;# 
  1820  020F                     	;# 
  1821  0210                     	;# 
  1822  0210                     	;# 
  1823  0211                     	;# 
  1824  0211                     	;# 
  1825  0212                     	;# 
  1826  0212                     	;# 
  1827  0213                     	;# 
  1828  0214                     	;# 
  1829  0215                     	;# 
  1830  0215                     	;# 
  1831  0216                     	;# 
  1832  0216                     	;# 
  1833  0217                     	;# 
  1834  0217                     	;# 
  1835  0218                     	;# 
  1836  0218                     	;# 
  1837  0219                     	;# 
  1838  021A                     	;# 
  1839  021B                     	;# 
  1840  021B                     	;# 
  1841  021C                     	;# 
  1842  021C                     	;# 
  1843  021D                     	;# 
  1844  021D                     	;# 
  1845  021E                     	;# 
  1846  021F                     	;# 
  1847  028C                     	;# 
  1848  028C                     	;# 
  1849  028D                     	;# 
  1850  028D                     	;# 
  1851  028E                     	;# 
  1852  028F                     	;# 
  1853  0290                     	;# 
  1854  0290                     	;# 
  1855  0291                     	;# 
  1856  0292                     	;# 
  1857  0292                     	;# 
  1858  0293                     	;# 
  1859  0293                     	;# 
  1860  0294                     	;# 
  1861  0295                     	;# 
  1862  0296                     	;# 
  1863  0296                     	;# 
  1864  0297                     	;# 
  1865  0298                     	;# 
  1866  0298                     	;# 
  1867  0299                     	;# 
  1868  0299                     	;# 
  1869  029A                     	;# 
  1870  029B                     	;# 
  1871  029C                     	;# 
  1872  029C                     	;# 
  1873  029D                     	;# 
  1874  030C                     	;# 
  1875  030C                     	;# 
  1876  030D                     	;# 
  1877  030E                     	;# 
  1878  030F                     	;# 
  1879  0310                     	;# 
  1880  0310                     	;# 
  1881  0311                     	;# 
  1882  0312                     	;# 
  1883  0313                     	;# 
  1884  0314                     	;# 
  1885  0314                     	;# 
  1886  0315                     	;# 
  1887  0316                     	;# 
  1888  0317                     	;# 
  1889  0318                     	;# 
  1890  0318                     	;# 
  1891  0319                     	;# 
  1892  031A                     	;# 
  1893  031B                     	;# 
  1894  031C                     	;# 
  1895  031C                     	;# 
  1896  031D                     	;# 
  1897  031E                     	;# 
  1898  031F                     	;# 
  1899  038C                     	;# 
  1900  038C                     	;# 
  1901  038D                     	;# 
  1902  038E                     	;# 
  1903  0390                     	;# 
  1904  0390                     	;# 
  1905  0391                     	;# 
  1906  0392                     	;# 
  1907  040C                     	;# 
  1908  040D                     	;# 
  1909  040E                     	;# 
  1910  040F                     	;# 
  1911  0410                     	;# 
  1912  0411                     	;# 
  1913  0416                     	;# 
  1914  0416                     	;# 
  1915  0417                     	;# 
  1916  0418                     	;# 
  1917  0418                     	;# 
  1918  0419                     	;# 
  1919  041A                     	;# 
  1920  041A                     	;# 
  1921  041B                     	;# 
  1922  041C                     	;# 
  1923  041C                     	;# 
  1924  041D                     	;# 
  1925  041E                     	;# 
  1926  041F                     	;# 
  1927  048C                     	;# 
  1928  048C                     	;# 
  1929  048D                     	;# 
  1930  048E                     	;# 
  1931  048F                     	;# 
  1932  048F                     	;# 
  1933  0490                     	;# 
  1934  0491                     	;# 
  1935  0492                     	;# 
  1936  0492                     	;# 
  1937  0493                     	;# 
  1938  0494                     	;# 
  1939  0495                     	;# 
  1940  0495                     	;# 
  1941  0496                     	;# 
  1942  0497                     	;# 
  1943  0498                     	;# 
  1944  0499                     	;# 
  1945  049A                     	;# 
  1946  049B                     	;# 
  1947  049C                     	;# 
  1948  049D                     	;# 
  1949  050C                     	;# 
  1950  050C                     	;# 
  1951  050D                     	;# 
  1952  050E                     	;# 
  1953  050F                     	;# 
  1954  050F                     	;# 
  1955  0510                     	;# 
  1956  0511                     	;# 
  1957  0512                     	;# 
  1958  0512                     	;# 
  1959  0513                     	;# 
  1960  0514                     	;# 
  1961  0515                     	;# 
  1962  0515                     	;# 
  1963  0516                     	;# 
  1964  0517                     	;# 
  1965  0518                     	;# 
  1966  0519                     	;# 
  1967  051A                     	;# 
  1968  051B                     	;# 
  1969  051C                     	;# 
  1970  051D                     	;# 
  1971  058C                     	;# 
  1972  058C                     	;# 
  1973  058D                     	;# 
  1974  058E                     	;# 
  1975  058F                     	;# 
  1976  058F                     	;# 
  1977  0590                     	;# 
  1978  0591                     	;# 
  1979  0592                     	;# 
  1980  0593                     	;# 
  1981  060C                     	;# 
  1982  060D                     	;# 
  1983  060E                     	;# 
  1984  060F                     	;# 
  1985  0610                     	;# 
  1986  0611                     	;# 
  1987  0612                     	;# 
  1988  0613                     	;# 
  1989  0614                     	;# 
  1990  0616                     	;# 
  1991  0617                     	;# 
  1992  0618                     	;# 
  1993  0619                     	;# 
  1994  061A                     	;# 
  1995  061B                     	;# 
  1996  061C                     	;# 
  1997  061D                     	;# 
  1998  061E                     	;# 
  1999  068C                     	;# 
  2000  068D                     	;# 
  2001  068E                     	;# 
  2002  068F                     	;# 
  2003  0690                     	;# 
  2004  0691                     	;# 
  2005  0692                     	;# 
  2006  0693                     	;# 
  2007  0694                     	;# 
  2008  070C                     	;# 
  2009  070D                     	;# 
  2010  070E                     	;# 
  2011  070F                     	;# 
  2012  0710                     	;# 
  2013  0711                     	;# 
  2014  0712                     	;# 
  2015  0713                     	;# 
  2016  0714                     	;# 
  2017  0716                     	;# 
  2018  0717                     	;# 
  2019  0718                     	;# 
  2020  0719                     	;# 
  2021  071A                     	;# 
  2022  071B                     	;# 
  2023  071C                     	;# 
  2024  071D                     	;# 
  2025  071E                     	;# 
  2026  0796                     	;# 
  2027  0797                     	;# 
  2028  0798                     	;# 
  2029  0799                     	;# 
  2030  079A                     	;# 
  2031  079B                     	;# 
  2032  080C                     	;# 
  2033  080D                     	;# 
  2034  080E                     	;# 
  2035  080F                     	;# 
  2036  0810                     	;# 
  2037  0811                     	;# 
  2038  0812                     	;# 
  2039  0813                     	;# 
  2040  0814                     	;# 
  2041  081A                     	;# 
  2042  081B                     	;# 
  2043  081C                     	;# 
  2044  081D                     	;# 
  2045  081E                     	;# 
  2046  081F                     	;# 
  2047  088C                     	;# 
  2048  088D                     	;# 
  2049  088E                     	;# 
  2050  088F                     	;# 
  2051  0890                     	;# 
  2052  0891                     	;# 
  2053  0892                     	;# 
  2054  0893                     	;# 
  2055  0895                     	;# 
  2056  0896                     	;# 
  2057  0897                     	;# 
  2058  0898                     	;# 
  2059  0899                     	;# 
  2060  089A                     	;# 
  2061  089B                     	;# 
  2062  090C                     	;# 
  2063  090E                     	;# 
  2064  090F                     	;# 
  2065  091F                     	;# 
  2066  091F                     	;# 
  2067  098F                     	;# 
  2068  098F                     	;# 
  2069  0990                     	;# 
  2070  0991                     	;# 
  2071  0992                     	;# 
  2072  0993                     	;# 
  2073  0994                     	;# 
  2074  0995                     	;# 
  2075  0996                     	;# 
  2076  0997                     	;# 
  2077  0E0F                     	;# 
  2078  0E10                     	;# 
  2079  0E11                     	;# 
  2080  0E12                     	;# 
  2081  0E13                     	;# 
  2082  0E14                     	;# 
  2083  0E15                     	;# 
  2084  0E16                     	;# 
  2085  0E17                     	;# 
  2086  0E18                     	;# 
  2087  0E19                     	;# 
  2088  0E1A                     	;# 
  2089  0E1B                     	;# 
  2090  0E1C                     	;# 
  2091  0E1D                     	;# 
  2092  0E1E                     	;# 
  2093  0E1F                     	;# 
  2094  0E20                     	;# 
  2095  0E21                     	;# 
  2096  0E22                     	;# 
  2097  0E23                     	;# 
  2098  0E24                     	;# 
  2099  0E25                     	;# 
  2100  0E26                     	;# 
  2101  0E27                     	;# 
  2102  0E28                     	;# 
  2103  0E29                     	;# 
  2104  0E2A                     	;# 
  2105  0E2B                     	;# 
  2106  0E2C                     	;# 
  2107  0E2D                     	;# 
  2108  0E2E                     	;# 
  2109  0E2F                     	;# 
  2110  0E30                     	;# 
  2111  0E31                     	;# 
  2112  0E32                     	;# 
  2113  0E33                     	;# 
  2114  0E34                     	;# 
  2115  0E35                     	;# 
  2116  0E36                     	;# 
  2117  0E37                     	;# 
  2118  0E8F                     	;# 
  2119  0E90                     	;# 
  2120  0E91                     	;# 
  2121  0E92                     	;# 
  2122  0E93                     	;# 
  2123  0E94                     	;# 
  2124  0E95                     	;# 
  2125  0E96                     	;# 
  2126  0E97                     	;# 
  2127  0E9C                     	;# 
  2128  0E9D                     	;# 
  2129  0E9E                     	;# 
  2130  0EA1                     	;# 
  2131  0EA2                     	;# 
  2132  0EA3                     	;# 
  2133  0EA4                     	;# 
  2134  0EA5                     	;# 
  2135  0EA9                     	;# 
  2136  0EAA                     	;# 
  2137  0EAB                     	;# 
  2138  0EAC                     	;# 
  2139  0EB1                     	;# 
  2140  0EB2                     	;# 
  2141  0EB3                     	;# 
  2142  0EB8                     	;# 
  2143  0EB9                     	;# 
  2144  0EBA                     	;# 
  2145  0EBB                     	;# 
  2146  0EBC                     	;# 
  2147  0EBD                     	;# 
  2148  0EBE                     	;# 
  2149  0EC3                     	;# 
  2150  0EC5                     	;# 
  2151  0EC6                     	;# 
  2152  0EC7                     	;# 
  2153  0EC8                     	;# 
  2154  0EC9                     	;# 
  2155  0ECA                     	;# 
  2156  0ECB                     	;# 
  2157  0ECC                     	;# 
  2158  0F10                     	;# 
  2159  0F11                     	;# 
  2160  0F12                     	;# 
  2161  0F13                     	;# 
  2162  0F14                     	;# 
  2163  0F15                     	;# 
  2164  0F16                     	;# 
  2165  0F17                     	;# 
  2166  0F18                     	;# 
  2167  0F19                     	;# 
  2168  0F1A                     	;# 
  2169  0F1B                     	;# 
  2170  0F1C                     	;# 
  2171  0F1D                     	;# 
  2172  0F1E                     	;# 
  2173  0F1F                     	;# 
  2174  0F20                     	;# 
  2175  0F21                     	;# 
  2176  0F22                     	;# 
  2177  0F23                     	;# 
  2178  0F24                     	;# 
  2179  0F25                     	;# 
  2180  0F26                     	;# 
  2181  0F27                     	;# 
  2182  0F28                     	;# 
  2183  0F29                     	;# 
  2184  0F2A                     	;# 
  2185  0F2B                     	;# 
  2186  0F2C                     	;# 
  2187  0F2D                     	;# 
  2188  0F2E                     	;# 
  2189  0F2F                     	;# 
  2190  0F30                     	;# 
  2191  0F31                     	;# 
  2192  0F32                     	;# 
  2193  0F38                     	;# 
  2194  0F39                     	;# 
  2195  0F3A                     	;# 
  2196  0F3B                     	;# 
  2197  0F3C                     	;# 
  2198  0F3D                     	;# 
  2199  0F3E                     	;# 
  2200  0F3F                     	;# 
  2201  0F40                     	;# 
  2202  0F41                     	;# 
  2203  0F43                     	;# 
  2204  0F44                     	;# 
  2205  0F45                     	;# 
  2206  0F46                     	;# 
  2207  0F47                     	;# 
  2208  0F48                     	;# 
  2209  0F49                     	;# 
  2210  0F4A                     	;# 
  2211  0F4B                     	;# 
  2212  0F4C                     	;# 
  2213  0F4E                     	;# 
  2214  0F4F                     	;# 
  2215  0F50                     	;# 
  2216  0F51                     	;# 
  2217  0F52                     	;# 
  2218  0F53                     	;# 
  2219  0F54                     	;# 
  2220  0F55                     	;# 
  2221  0F56                     	;# 
  2222  0F57                     	;# 
  2223  0F59                     	;# 
  2224  0F5A                     	;# 
  2225  0F5B                     	;# 
  2226  0F5C                     	;# 
  2227  0F5D                     	;# 
  2228  0F61                     	;# 
  2229  0F62                     	;# 
  2230  0F64                     	;# 
  2231  0F65                     	;# 
  2232  0F66                     	;# 
  2233  0F67                     	;# 
  2234  0F68                     	;# 
  2235  0F69                     	;# 
  2236  0F6A                     	;# 
  2237  0F6B                     	;# 
  2238  0F6C                     	;# 
  2239  0F6D                     	;# 
  2240  0FE4                     	;# 
  2241  0FE5                     	;# 
  2242  0FE6                     	;# 
  2243  0FE7                     	;# 
  2244  0FE8                     	;# 
  2245  0FE9                     	;# 
  2246  0FEA                     	;# 
  2247  0FEB                     	;# 
  2248  0FED                     	;# 
  2249  0FEE                     	;# 
  2250  0FEF                     	;# 
  2251  0014                     _TRISDbits	set	20
  2252  000D                     _PORTB	set	13
  2253  0017                     _LATB	set	23
  2254  0012                     _TRISB	set	18
  2255  0019                     _LATDbits	set	25
  2256  001F                     _T0CON1bits	set	31
  2257  0011                     _TRISAbits	set	17
  2258  001C                     _TMR0	set	28
  2259  009F                     _TRISC7	set	159
  2260  009E                     _TRISC6	set	158
  2261  00F4                     _T016BIT	set	244
  2262  00F7                     _T0EN	set	247
  2263  005E                     _PEIE	set	94
  2264  005F                     _GIE	set	95
  2265  00B3                     _LATA3	set	179
  2266  008B                     _TRISA3	set	139
  2267  008C                     _ADRES	set	140
  2268  0096                     _ADCON3bits	set	150
  2269  009E                     _ADPCH	set	158
  2270  009A                     _ADREFbits	set	154
  2271  0098                     _ADCLK	set	152
  2272  0093                     _ADCON0bits	set	147
  2273  049A                     _ADFRM0	set	1178
  2274  011B                     _SP1BRG	set	283
  2275  0119                     _RCREG	set	281
  2276  011D                     _RC1STAbits	set	285
  2277  011E                     _TX1STAbits	set	286
  2278  011A                     _TXREG	set	282
  2279  08F1                     _TRMT	set	2289
  2280  38CC                     _TXIE	set	14540
  2281  38B8                     _ADIE	set	14520
  2282  3868                     _ADIF	set	14440
  2283  3865                     _TMR0IF	set	14437
  2284  38B5                     _TMR0IE	set	14517
  2285  0893                     _OSCFRQ	set	2195
  2286  088D                     _OSCCON1	set	2189
  2287  090C                     _FVRCONbits	set	2316
  2288  0F4E                     _ANSELCbits	set	3918
  2289  0F26                     _RC6PPS	set	3878
  2290  0F38                     _ANSELAbits	set	3896
  2291                           
  2292                           	psect	stringtext1
  2293  06E3                     __pstringtext1:	
  2294  06E3                     STR_1:	
  2295  06E3  3474               	retlw	116	;'t'
  2296  06E4  3420               	retlw	32	;' '
  2297  06E5  343D               	retlw	61	;'='
  2298  06E6  3420               	retlw	32	;' '
  2299  06E7  3430               	retlw	48	;'0'
  2300  06E8  3430               	retlw	48	;'0'
  2301  06E9  3400               	retlw	0
  2302                           
  2303                           	psect	stringtext2
  2304  0000                     __pstringtext2:	
  2305                           
  2306                           ; #config settings
  2307  0000                     
  2308                           	psect	cinit
  2309  0035                     start_initialization:	
  2310  0035                     __initialization:	
  2311                           
  2312                           ; Clear objects allocated to BANK0
  2313  0035  0020               	movlb	0	; select bank0
  2314  0036  01CA               	clrf	__pbssBANK0& (0+127)
  2315  0037  01CB               	clrf	(__pbssBANK0+1)& (0+127)
  2316  0038  01CC               	clrf	(__pbssBANK0+2)& (0+127)
  2317  0039                     end_of_initialization:	
  2318                           ;End of C runtime variable initialization code
  2319                           
  2320  0039                     __end_of__initialization:	
  2321  0039  107E               	bcf	int$flags,0	;clear compiler interrupt flag (level 1)
  2322  003A  0020               	movlb	0
  2323  003B  3182  2A94         	ljmp	_main	;jump to C main() function
  2324                           
  2325                           	psect	bssBANK0
  2326  004A                     __pbssBANK0:	
  2327  004A                     _check:	
  2328  004A                     	ds	1
  2329  004B                     _tmp:	
  2330  004B                     	ds	2
  2331                           
  2332                           	psect	cstackCOMMON
  2333  0070                     __pcstackCOMMON:	
  2334  0070                     ?_T0_init:	
  2335  0070                     ??_T0_init:	
  2336                           ; 1 bytes @ 0x0
  2337                           
  2338  0070                     ?_adc_init:	
  2339                           ; 1 bytes @ 0x0
  2340                           
  2341  0070                     ??_adc_init:	
  2342                           ; 1 bytes @ 0x0
  2343                           
  2344  0070                     ?_EUSART_init:	
  2345                           ; 1 bytes @ 0x0
  2346                           
  2347  0070                     ??_EUSART_init:	
  2348                           ; 1 bytes @ 0x0
  2349                           
  2350  0070                     ?_lcd_init:	
  2351                           ; 1 bytes @ 0x0
  2352                           
  2353  0070                     ?_lcd_send_data:	
  2354                           ; 1 bytes @ 0x0
  2355                           
  2356  0070                     ?_main:	
  2357                           ; 1 bytes @ 0x0
  2358                           
  2359  0070                     ?_ISR:	
  2360                           ; 1 bytes @ 0x0
  2361                           
  2362  0070                     ??_ISR:	
  2363                           ; 1 bytes @ 0x0
  2364                           
  2365  0070                     ?_uart_send_byte:	
  2366                           ; 1 bytes @ 0x0
  2367                           
  2368  0070                     ?_lcd_write_data:	
  2369                           ; 1 bytes @ 0x0
  2370                           
  2371  0070                     ??_lcd_write_data:	
  2372                           ; 1 bytes @ 0x0
  2373                           
  2374  0070                     ?_lcd_send_cmd:	
  2375                           ; 1 bytes @ 0x0
  2376                           
  2377  0070                     ?_memcpy:	
  2378                           ; 1 bytes @ 0x0
  2379                           
  2380  0070                     ?__Umul8_16:	
  2381                           ; 2 bytes @ 0x0
  2382                           
  2383  0070                     ?___awdiv:	
  2384                           ; 2 bytes @ 0x0
  2385                           
  2386  0070                     ?___awmod:	
  2387                           ; 2 bytes @ 0x0
  2388                           
  2389  0070                     ?___xxtofl:	
  2390                           ; 2 bytes @ 0x0
  2391                           
  2392  0070                     lcd_write_data@data:	
  2393                           ; 4 bytes @ 0x0
  2394                           
  2395  0070                     __Umul8_16@multiplicand:	
  2396                           ; 1 bytes @ 0x0
  2397                           
  2398  0070                     ___awdiv@divisor:	
  2399                           ; 1 bytes @ 0x0
  2400                           
  2401  0070                     ___awmod@divisor:	
  2402                           ; 2 bytes @ 0x0
  2403                           
  2404  0070                     memcpy@d1:	
  2405                           ; 2 bytes @ 0x0
  2406                           
  2407  0070                     ___xxtofl@val:	
  2408                           ; 2 bytes @ 0x0
  2409                           
  2410                           
  2411                           ; 4 bytes @ 0x0
  2412  0070                     	ds	1
  2413  0071                     ??_lcd_send_data:	
  2414  0071                     ??_lcd_send_cmd:	
  2415                           ; 1 bytes @ 0x1
  2416                           
  2417  0071                     lcd_send_cmd@cmd:	
  2418                           ; 1 bytes @ 0x1
  2419                           
  2420  0071                     lcd_send_data@data:	
  2421                           ; 1 bytes @ 0x1
  2422                           
  2423                           
  2424                           ; 1 bytes @ 0x1
  2425  0071                     	ds	1
  2426  0072                     ?_lcd_set_cursor:	
  2427  0072                     ?_lcd_write_ascii:	
  2428                           ; 1 bytes @ 0x2
  2429                           
  2430  0072                     ??__Umul8_16:	
  2431                           ; 1 bytes @ 0x2
  2432                           
  2433  0072                     ?_display_controll:	
  2434                           ; 1 bytes @ 0x2
  2435                           
  2436  0072                     display_controll@c:	
  2437                           ; 1 bytes @ 0x2
  2438                           
  2439  0072                     lcd_set_cursor@c:	
  2440                           ; 1 bytes @ 0x2
  2441                           
  2442  0072                     memcpy@s1:	
  2443                           ; 1 bytes @ 0x2
  2444                           
  2445  0072                     lcd_write_ascii@str:	
  2446                           ; 1 bytes @ 0x2
  2447                           
  2448  0072                     ___awdiv@dividend:	
  2449                           ; 2 bytes @ 0x2
  2450                           
  2451  0072                     ___awmod@dividend:	
  2452                           ; 2 bytes @ 0x2
  2453                           
  2454                           
  2455                           ; 2 bytes @ 0x2
  2456  0072                     	ds	1
  2457  0073                     ??_lcd_set_cursor:	
  2458  0073                     display_controll@b:	
  2459                           ; 1 bytes @ 0x3
  2460                           
  2461  0073                     memcpy@n:	
  2462                           ; 1 bytes @ 0x3
  2463                           
  2464                           
  2465                           ; 2 bytes @ 0x3
  2466  0073                     	ds	1
  2467  0074                     ??_display_controll:	
  2468  0074                     ??___awdiv:	
  2469                           ; 1 bytes @ 0x4
  2470                           
  2471  0074                     ??___awmod:	
  2472                           ; 1 bytes @ 0x4
  2473                           
  2474  0074                     ??___xxtofl:	
  2475                           ; 1 bytes @ 0x4
  2476                           
  2477  0074                     lcd_set_cursor@r:	
  2478                           ; 1 bytes @ 0x4
  2479                           
  2480  0074                     lcd_write_ascii@data_size:	
  2481                           ; 1 bytes @ 0x4
  2482                           
  2483  0074                     __Umul8_16@product:	
  2484                           ; 2 bytes @ 0x4
  2485                           
  2486                           
  2487                           ; 2 bytes @ 0x4
  2488  0074                     	ds	1
  2489  0075                     ??_memcpy:	
  2490  0075                     lcd_set_cursor@Temp:	
  2491                           ; 1 bytes @ 0x5
  2492                           
  2493  0075                     ___awdiv@counter:	
  2494                           ; 1 bytes @ 0x5
  2495                           
  2496  0075                     ___awmod@counter:	
  2497                           ; 1 bytes @ 0x5
  2498                           
  2499                           
  2500                           ; 1 bytes @ 0x5
  2501  0075                     	ds	1
  2502  0076                     ??_lcd_write_ascii:	
  2503  0076                     ___awdiv@sign:	
  2504                           ; 1 bytes @ 0x6
  2505                           
  2506  0076                     ___awmod@sign:	
  2507                           ; 1 bytes @ 0x6
  2508                           
  2509  0076                     lcd_write_ascii@i:	
  2510                           ; 1 bytes @ 0x6
  2511                           
  2512  0076                     memcpy@d:	
  2513                           ; 2 bytes @ 0x6
  2514                           
  2515  0076                     __Umul8_16@word_mpld:	
  2516                           ; 2 bytes @ 0x6
  2517                           
  2518                           
  2519                           ; 2 bytes @ 0x6
  2520  0076                     	ds	1
  2521  0077                     ___awdiv@quotient:	
  2522                           
  2523                           ; 2 bytes @ 0x7
  2524  0077                     	ds	1
  2525  0078                     ___xxtofl@sign:	
  2526  0078                     memcpy@tmp:	
  2527                           ; 1 bytes @ 0x8
  2528                           
  2529  0078                     __Umul8_16@multiplier:	
  2530                           ; 1 bytes @ 0x8
  2531                           
  2532                           
  2533                           ; 1 bytes @ 0x8
  2534  0078                     	ds	1
  2535  0079                     display_controll@d:	
  2536  0079                     ___xxtofl@exp:	
  2537                           ; 1 bytes @ 0x9
  2538                           
  2539  0079                     memcpy@s:	
  2540                           ; 1 bytes @ 0x9
  2541                           
  2542                           
  2543                           ; 1 bytes @ 0x9
  2544  0079                     	ds	1
  2545  007A                     ??_uart_send_byte:	
  2546  007A                     display_controll@cmd:	
  2547                           ; 1 bytes @ 0xA
  2548                           
  2549  007A                     ___xxtofl@arg:	
  2550                           ; 1 bytes @ 0xA
  2551                           
  2552                           
  2553                           ; 4 bytes @ 0xA
  2554  007A                     	ds	1
  2555  007B                     ??_lcd_init:	
  2556  007B                     ??_uart_send_ascii:	
  2557                           ; 1 bytes @ 0xB
  2558                           
  2559  007B                     uart_send_ascii@data:	
  2560                           ; 1 bytes @ 0xB
  2561                           
  2562                           
  2563                           ; 1 bytes @ 0xB
  2564  007B                     	ds	1
  2565  007C                     uart_send_ascii@i:	
  2566                           
  2567                           ; 2 bytes @ 0xC
  2568  007C                     	ds	2
  2569                           
  2570                           	psect	cstackBANK0
  2571  0020                     __pcstackBANK0:	
  2572  0020                     ?___flmul:	
  2573  0020                     uart_send_byte@num:	
  2574                           ; 4 bytes @ 0x0
  2575                           
  2576  0020                     ___flmul@b:	
  2577                           ; 1 bytes @ 0x0
  2578                           
  2579                           
  2580                           ; 4 bytes @ 0x0
  2581  0020                     	ds	1
  2582  0021                     uart_send_byte@ptr:	
  2583                           
  2584                           ; 1 bytes @ 0x1
  2585  0021                     	ds	1
  2586  0022                     uart_send_byte@size:	
  2587                           
  2588                           ; 2 bytes @ 0x2
  2589  0022                     	ds	2
  2590  0024                     ?_uart_send_ascii:	
  2591  0024                     uart_send_ascii@data_size:	
  2592                           ; 1 bytes @ 0x4
  2593                           
  2594  0024                     ___flmul@a:	
  2595                           ; 2 bytes @ 0x4
  2596                           
  2597                           
  2598                           ; 4 bytes @ 0x4
  2599  0024                     	ds	4
  2600  0028                     ??___flmul:	
  2601                           
  2602                           ; 1 bytes @ 0x8
  2603  0028                     	ds	5
  2604  002D                     ___flmul@sign:	
  2605                           
  2606                           ; 1 bytes @ 0xD
  2607  002D                     	ds	1
  2608  002E                     ___flmul@grs:	
  2609                           
  2610                           ; 4 bytes @ 0xE
  2611  002E                     	ds	4
  2612  0032                     ___flmul@aexp:	
  2613                           
  2614                           ; 1 bytes @ 0x12
  2615  0032                     	ds	1
  2616  0033                     ___flmul@bexp:	
  2617                           
  2618                           ; 1 bytes @ 0x13
  2619  0033                     	ds	1
  2620  0034                     ___flmul@prod:	
  2621                           
  2622                           ; 4 bytes @ 0x14
  2623  0034                     	ds	4
  2624  0038                     ___flmul@temp:	
  2625                           
  2626                           ; 2 bytes @ 0x18
  2627  0038                     	ds	2
  2628  003A                     ?___fltol:	
  2629  003A                     ___fltol@f1:	
  2630                           ; 4 bytes @ 0x1A
  2631                           
  2632                           
  2633                           ; 4 bytes @ 0x1A
  2634  003A                     	ds	4
  2635  003E                     ??___fltol:	
  2636                           
  2637                           ; 1 bytes @ 0x1E
  2638  003E                     	ds	5
  2639  0043                     ___fltol@sign1:	
  2640                           
  2641                           ; 1 bytes @ 0x23
  2642  0043                     	ds	1
  2643  0044                     ___fltol@exp1:	
  2644                           
  2645                           ; 1 bytes @ 0x24
  2646  0044                     	ds	1
  2647  0045                     ??_main:	
  2648                           
  2649                           ; 1 bytes @ 0x25
  2650  0045                     	ds	1
  2651  0046                     main@t:	
  2652                           
  2653                           ; 2 bytes @ 0x26
  2654  0046                     	ds	2
  2655  0048                     main@i:	
  2656                           
  2657                           ; 2 bytes @ 0x28
  2658  0048                     	ds	2
  2659                           
  2660                           	psect	maintext
  2661  0294                     __pmaintext:	
  2662 ;;
  2663 ;;Main: autosize = 0, tempsize = 1, incstack = 0, save=0
  2664 ;;
  2665 ;; *************** function _main *****************
  2666 ;; Defined at:
  2667 ;;		line 28 in file "main.c"
  2668 ;; Parameters:    Size  Location     Type
  2669 ;;		None
  2670 ;; Auto vars:     Size  Location     Type
  2671 ;;  t               2   38[BANK0 ] unsigned char [2]
  2672 ;;  i               2   40[BANK0 ] int 
  2673 ;; Return value:  Size  Location     Type
  2674 ;;                  1    wreg      void 
  2675 ;; Registers used:
  2676 ;;		wreg, fsr0l, fsr0h, fsr1l, fsr1h, status,2, status,0, pclath, cstack
  2677 ;; Tracked objects:
  2678 ;;		On entry : B1F/0
  2679 ;;		On exit  : 0/0
  2680 ;;		Unchanged: 0/0
  2681 ;; Data sizes:     COMMON   BANK0   BANK1   BANK2   BANK3   BANK4   BANK5   BANK6   BANK7   BANK8   BANK9  BANK10  BANK1
      +1  BANK12
  2682 ;;      Params:         0       0       0       0       0       0       0       0       0       0       0       0       
      +0       0
  2683 ;;      Locals:         0       4       0       0       0       0       0       0       0       0       0       0       
      +0       0
  2684 ;;      Temps:          0       1       0       0       0       0       0       0       0       0       0       0       
      +0       0
  2685 ;;      Totals:         0       5       0       0       0       0       0       0       0       0       0       0       
      +0       0
  2686 ;;Total ram usage:        5 bytes
  2687 ;; Hardware stack levels required when called:    5
  2688 ;; This function calls:
  2689 ;;		_EUSART_init
  2690 ;;		_T0_init
  2691 ;;		___awdiv
  2692 ;;		___awmod
  2693 ;;		___flmul
  2694 ;;		___fltol
  2695 ;;		___xxtofl
  2696 ;;		_adc_init
  2697 ;;		_lcd_init
  2698 ;;		_lcd_send_data
  2699 ;;		_lcd_set_cursor
  2700 ;;		_lcd_write_ascii
  2701 ;;		_uart_send_ascii
  2702 ;; This function is called by:
  2703 ;;		Startup code after reset
  2704 ;; This function uses a non-reentrant model
  2705 ;;
  2706                           
  2707                           
  2708                           ;psect for function _main
  2709  0294                     _main:	
  2710  0294                     l1883:	
  2711                           ;incstack = 0
  2712                           ; Regs used in _main: [wreg-fsr1h+status,2+status,0+pclath+cstack]
  2713                           
  2714                           
  2715                           ;main.c: 29:     OSCCON1 = 0;
  2716  0294  0031               	movlb	17	; select bank17
  2717  0295  018D               	clrf	13	;volatile
  2718  0296                     l1885:	
  2719                           
  2720                           ;main.c: 30:     OSCFRQ = 0b00000010;
  2721  0296  3002               	movlw	2
  2722  0297  0093               	movwf	19	;volatile
  2723  0298                     l1887:	
  2724                           
  2725                           ;main.c: 32:     FVRCONbits.FVREN = 1;
  2726  0298  0032               	movlb	18	; select bank18
  2727  0299  178C               	bsf	12,7	;volatile
  2728  029A                     l1889:	
  2729                           
  2730                           ;main.c: 33:     FVRCONbits.CDAFVR = 0b10;
  2731  029A  080C               	movf	12,w	;volatile
  2732  029B  39F3               	andlw	-13
  2733  029C  3808               	iorlw	8
  2734  029D  008C               	movwf	12	;volatile
  2735  029E                     l91:	
  2736                           ;main.c: 34:     while(!FVRCONbits.FVRRDY){}
  2737                           
  2738  029E  1F0C               	btfss	12,6	;volatile
  2739  029F  2AA1               	goto	u1721
  2740  02A0  2AA2               	goto	u1720
  2741  02A1                     u1721:	
  2742  02A1  2A9E               	goto	l91
  2743  02A2                     u1720:	
  2744  02A2                     l93:	
  2745                           
  2746                           ;main.c: 36:     TRISA3 = 0;
  2747  02A2  0020               	movlb	0	; select bank0
  2748  02A3  1191               	bcf	17,3	;volatile
  2749                           
  2750                           ;main.c: 37:     LATA3 = 0;
  2751  02A4  1196               	bcf	22,3	;volatile
  2752  02A5                     l1891:	
  2753                           
  2754                           ;main.c: 39:     tmp = 0;
  2755  02A5  01CB               	clrf	_tmp
  2756  02A6  01CC               	clrf	_tmp+1
  2757  02A7                     l1893:	
  2758                           
  2759                           ;main.c: 41:     GIE = 1;
  2760  02A7  178B               	bsf	11,7	;volatile
  2761  02A8                     l1895:	
  2762                           
  2763                           ;main.c: 42:     PEIE = 1;
  2764  02A8  170B               	bsf	11,6	;volatile
  2765  02A9                     l1897:	
  2766                           
  2767                           ;main.c: 44:     T0_init();
  2768  02A9  3186  26C1  3182   	fcall	_T0_init
  2769  02AC                     l1899:	
  2770                           
  2771                           ;main.c: 45:     adc_init();
  2772  02AC  3186  2667  3182   	fcall	_adc_init
  2773  02AF                     l1901:	
  2774                           
  2775                           ;main.c: 46:     EUSART_init();
  2776  02AF  3186  269A  3182   	fcall	_EUSART_init
  2777  02B2                     l1903:	
  2778                           
  2779                           ;main.c: 47:     lcd_init();
  2780  02B2  3184  24DB  3182   	fcall	_lcd_init
  2781  02B5                     l1905:	
  2782                           
  2783                           ;main.c: 49:     lcd_set_cursor(1, 1);
  2784  02B5  01F2               	clrf	lcd_set_cursor@c
  2785  02B6  0AF2               	incf	lcd_set_cursor@c,f
  2786  02B7  3001               	movlw	1
  2787  02B8  3186  2605  3182   	fcall	_lcd_set_cursor
  2788  02BB                     l1907:	
  2789                           
  2790                           ;main.c: 50:     lcd_write_ascii("t = 00", 6);
  2791  02BB  30E3               	movlw	low (STR_1| (0+32768))
  2792  02BC  00F2               	movwf	lcd_write_ascii@str
  2793  02BD  3086               	movlw	high (STR_1| (0+32768))
  2794  02BE  00F3               	movwf	lcd_write_ascii@str+1
  2795  02BF  3006               	movlw	6
  2796  02C0  00F4               	movwf	lcd_write_ascii@data_size
  2797  02C1  3000               	movlw	0
  2798  02C2  00F5               	movwf	lcd_write_ascii@data_size+1
  2799  02C3  3186  264B  3182   	fcall	_lcd_write_ascii
  2800  02C6                     l1909:	
  2801                           
  2802                           ;main.c: 51:     lcd_send_data(0b11011111);
  2803  02C6  30DF               	movlw	223
  2804  02C7  3186  26D1  3182   	fcall	_lcd_send_data
  2805  02CA                     l1911:	
  2806                           
  2807                           ;main.c: 52:     lcd_send_data('C');
  2808  02CA  3043               	movlw	67
  2809  02CB  3186  26D1  3182   	fcall	_lcd_send_data
  2810  02CE                     l1913:	
  2811                           
  2812                           ;main.c: 54:     T0EN = 1;
  2813  02CE  0020               	movlb	0	; select bank0
  2814  02CF  179E               	bsf	30,7	;volatile
  2815  02D0                     l1915:	
  2816                           
  2817                           ;main.c: 57:         if (check){
  2818  02D0  084A               	movf	_check,w
  2819  02D1  1903               	btfsc	3,2
  2820  02D2  2AD4               	goto	u1731
  2821  02D3  2AD5               	goto	u1730
  2822  02D4                     u1731:	
  2823  02D4  2AD0               	goto	l1915
  2824  02D5                     u1730:	
  2825  02D5                     l1917:	
  2826                           
  2827                           ;main.c: 58:             char t[2];;main.c: 59:             tmp = (short)(0.48 * tmp);
  2828  02D5  084B               	movf	_tmp,w
  2829  02D6  00F0               	movwf	___xxtofl@val
  2830  02D7  084C               	movf	_tmp+1,w
  2831  02D8  00F1               	movwf	___xxtofl@val+1
  2832  02D9  0D89               	rlf	9,f
  2833  02DA  3B89               	subwfb	9,f
  2834  02DB  0989               	comf	9,f
  2835  02DC  00F2               	movwf	___xxtofl@val+2
  2836  02DD  00F3               	movwf	___xxtofl@val+3
  2837  02DE  3001               	movlw	1
  2838  02DF  3183  235B  3182   	fcall	___xxtofl
  2839  02E2  0873               	movf	?___xxtofl+3,w
  2840  02E3  0020               	movlb	0	; select bank0
  2841  02E4  00A7               	movwf	___flmul@a+3
  2842  02E5  0872               	movf	?___xxtofl+2,w
  2843  02E6  00A6               	movwf	___flmul@a+2
  2844  02E7  0871               	movf	?___xxtofl+1,w
  2845  02E8  00A5               	movwf	___flmul@a+1
  2846  02E9  0870               	movf	?___xxtofl,w
  2847  02EA  00A4               	movwf	___flmul@a
  2848  02EB  303E               	movlw	62
  2849  02EC  00A3               	movwf	___flmul@b+3
  2850  02ED  30F5               	movlw	245
  2851  02EE  00A2               	movwf	___flmul@b+2
  2852  02EF  30C2               	movlw	194
  2853  02F0  00A1               	movwf	___flmul@b+1
  2854  02F1  308F               	movlw	143
  2855  02F2  00A0               	movwf	___flmul@b
  2856  02F3  3180  203D  3182   	fcall	___flmul
  2857  02F6  0020               	movlb	0	; select bank0
  2858  02F7  0823               	movf	?___flmul+3,w
  2859  02F8  00BD               	movwf	___fltol@f1+3
  2860  02F9  0822               	movf	?___flmul+2,w
  2861  02FA  00BC               	movwf	___fltol@f1+2
  2862  02FB  0821               	movf	?___flmul+1,w
  2863  02FC  00BB               	movwf	___fltol@f1+1
  2864  02FD  0820               	movf	?___flmul,w
  2865  02FE  00BA               	movwf	___fltol@f1
  2866  02FF  3184  2407  3182   	fcall	___fltol
  2867  0302  0020               	movlb	0	; select bank0
  2868  0303  083B               	movf	?___fltol+1,w
  2869  0304  00CC               	movwf	_tmp+1
  2870  0305  083A               	movf	?___fltol,w
  2871  0306  00CB               	movwf	_tmp
  2872  0307                     l1919:	
  2873                           
  2874                           ;main.c: 60:             int i = 1;
  2875  0307  3001               	movlw	1
  2876  0308  00C8               	movwf	main@i
  2877  0309  3000               	movlw	0
  2878  030A  00C9               	movwf	main@i+1
  2879                           
  2880                           ;main.c: 62:             while (i > -1){
  2881  030B  2B35               	goto	l1927
  2882  030C                     l1921:	
  2883                           
  2884                           ;main.c: 63:                 t[i] = tmp % 10 + 48;
  2885  030C  300A               	movlw	10
  2886  030D  00F0               	movwf	___awmod@divisor
  2887  030E  3000               	movlw	0
  2888  030F  00F1               	movwf	___awmod@divisor+1
  2889  0310  084C               	movf	_tmp+1,w
  2890  0311  00F3               	movwf	___awmod@dividend+1
  2891  0312  084B               	movf	_tmp,w
  2892  0313  00F2               	movwf	___awmod@dividend
  2893  0314  3185  2534  3182   	fcall	___awmod
  2894  0317  0870               	movf	?___awmod,w
  2895  0318  3E30               	addlw	48
  2896  0319  0020               	movlb	0	; select bank0
  2897  031A  00C5               	movwf	??_main
  2898  031B  0848               	movf	main@i,w
  2899  031C  3E46               	addlw	(low (main@t| 0))& (0+255)
  2900  031D  0086               	movwf	6
  2901  031E  0187               	clrf	7
  2902  031F  0845               	movf	??_main,w
  2903  0320  0081               	movwf	1
  2904  0321                     l1923:	
  2905                           
  2906                           ;main.c: 64:                 tmp /= 10;
  2907  0321  300A               	movlw	10
  2908  0322  00F0               	movwf	___awdiv@divisor
  2909  0323  3000               	movlw	0
  2910  0324  00F1               	movwf	___awdiv@divisor+1
  2911  0325  084C               	movf	_tmp+1,w
  2912  0326  00F3               	movwf	___awdiv@dividend+1
  2913  0327  084B               	movf	_tmp,w
  2914  0328  00F2               	movwf	___awdiv@dividend
  2915  0329  3184  247C  3182   	fcall	___awdiv
  2916  032C  0871               	movf	?___awdiv+1,w
  2917  032D  0020               	movlb	0	; select bank0
  2918  032E  00CC               	movwf	_tmp+1
  2919  032F  0870               	movf	?___awdiv,w
  2920  0330  00CB               	movwf	_tmp
  2921  0331                     l1925:	
  2922                           
  2923                           ;main.c: 65:                 i--;
  2924  0331  30FF               	movlw	255
  2925  0332  07C8               	addwf	main@i,f
  2926  0333  30FF               	movlw	255
  2927  0334  3DC9               	addwfc	main@i+1,f
  2928  0335                     l1927:	
  2929                           
  2930                           ;main.c: 62:             while (i > -1){
  2931  0335  1FC9               	btfss	main@i+1,7
  2932  0336  2B38               	goto	u1741
  2933  0337  2B39               	goto	u1740
  2934  0338                     u1741:	
  2935  0338  2B0C               	goto	l1921
  2936  0339                     u1740:	
  2937  0339                     l1929:	
  2938                           
  2939                           ;main.c: 68:             lcd_set_cursor(1, 5);
  2940  0339  3005               	movlw	5
  2941  033A  00C5               	movwf	??_main
  2942  033B  0845               	movf	??_main,w
  2943  033C  00F2               	movwf	lcd_set_cursor@c
  2944  033D  3001               	movlw	1
  2945  033E  3186  2605  3182   	fcall	_lcd_set_cursor
  2946  0341                     l1931:	
  2947                           
  2948                           ;main.c: 69:             lcd_write_ascii(t, 2);
  2949  0341  3046               	movlw	low main@t
  2950  0342  00F2               	movwf	lcd_write_ascii@str
  2951  0343  3000               	movlw	high main@t
  2952  0344  00F3               	movwf	lcd_write_ascii@str+1
  2953  0345  3002               	movlw	2
  2954  0346  00F4               	movwf	lcd_write_ascii@data_size
  2955  0347  3000               	movlw	0
  2956  0348  00F5               	movwf	lcd_write_ascii@data_size+1
  2957  0349  3186  264B  3182   	fcall	_lcd_write_ascii
  2958  034C                     l1933:	
  2959                           
  2960                           ;main.c: 70:             uart_send_ascii(t, 2);
  2961  034C  3002               	movlw	2
  2962  034D  0020               	movlb	0	; select bank0
  2963  034E  00A4               	movwf	uart_send_ascii@data_size
  2964  034F  3000               	movlw	0
  2965  0350  00A5               	movwf	uart_send_ascii@data_size+1
  2966  0351  3046               	movlw	(low (main@t| 0))& (0+255)
  2967  0352  3186  2681  3182   	fcall	_uart_send_ascii
  2968  0355                     l1935:	
  2969                           
  2970                           ;main.c: 71:             T0EN = 1;
  2971  0355  0020               	movlb	0	; select bank0
  2972  0356  179E               	bsf	30,7	;volatile
  2973  0357                     l1937:	
  2974                           
  2975                           ;main.c: 72:             check = 0;
  2976  0357  01CA               	clrf	_check
  2977  0358  2AD0               	goto	l1915
  2978  0359  3180  2833         	ljmp	start
  2979  035B                     __end_of_main:	
  2980                           
  2981                           	psect	text1
  2982  0681                     __ptext1:	
  2983 ;; *************** function _uart_send_ascii *****************
  2984 ;; Defined at:
  2985 ;;		line 29 in file "uart.c"
  2986 ;; Parameters:    Size  Location     Type
  2987 ;;  data            1    wreg     PTR unsigned char 
  2988 ;;		 -> main@t(2), 
  2989 ;;  data_size       2    4[BANK0 ] unsigned int 
  2990 ;; Auto vars:     Size  Location     Type
  2991 ;;  data            1   11[COMMON] PTR unsigned char 
  2992 ;;		 -> main@t(2), 
  2993 ;;  i               2   12[COMMON] unsigned int 
  2994 ;; Return value:  Size  Location     Type
  2995 ;;                  1    wreg      void 
  2996 ;; Registers used:
  2997 ;;		wreg, fsr1l, fsr1h, status,2, status,0, pclath, cstack
  2998 ;; Tracked objects:
  2999 ;;		On entry : 0/0
  3000 ;;		On exit  : 0/0
  3001 ;;		Unchanged: 0/0
  3002 ;; Data sizes:     COMMON   BANK0   BANK1   BANK2   BANK3   BANK4   BANK5   BANK6   BANK7   BANK8   BANK9  BANK10  BANK1
      +1  BANK12
  3003 ;;      Params:         0       2       0       0       0       0       0       0       0       0       0       0       
      +0       0
  3004 ;;      Locals:         3       0       0       0       0       0       0       0       0       0       0       0       
      +0       0
  3005 ;;      Temps:          0       0       0       0       0       0       0       0       0       0       0       0       
      +0       0
  3006 ;;      Totals:         3       2       0       0       0       0       0       0       0       0       0       0       
      +0       0
  3007 ;;Total ram usage:        5 bytes
  3008 ;; Hardware stack levels used:    1
  3009 ;; Hardware stack levels required when called:    3
  3010 ;; This function calls:
  3011 ;;		_uart_send_byte
  3012 ;; This function is called by:
  3013 ;;		_main
  3014 ;; This function uses a non-reentrant model
  3015 ;;
  3016                           
  3017                           
  3018                           ;psect for function _uart_send_ascii
  3019  0681                     _uart_send_ascii:	
  3020                           
  3021                           ;incstack = 0
  3022                           ; Regs used in _uart_send_ascii: [wreg+fsr1l+fsr1h+status,2+status,0+pclath+cstack]
  3023                           ;uart_send_ascii@data stored from wreg
  3024  0681  00FB               	movwf	uart_send_ascii@data
  3025  0682                     l1573:	
  3026                           
  3027                           ;uart.c: 29: void uart_send_ascii(char* data, size_t data_size);uart.c: 30: {;uart.c: 31
      +                          :     for(size_t i = 0; i < data_size; i++)
  3028  0682  01FC               	clrf	uart_send_ascii@i
  3029  0683  01FD               	clrf	uart_send_ascii@i+1
  3030  0684  2E8E               	goto	l1579
  3031  0685                     l1575:	
  3032                           
  3033                           ;uart.c: 32:     {;uart.c: 33:         uart_send_byte(&data[i]);
  3034  0685  087B               	movf	uart_send_ascii@data,w
  3035  0686  077C               	addwf	uart_send_ascii@i,w
  3036  0687  3185  2587  3186   	fcall	_uart_send_byte
  3037  068A                     l1577:	
  3038                           
  3039                           ;uart.c: 34:     }
  3040  068A  3001               	movlw	1
  3041  068B  07FC               	addwf	uart_send_ascii@i,f
  3042  068C  3000               	movlw	0
  3043  068D  3DFD               	addwfc	uart_send_ascii@i+1,f
  3044  068E                     l1579:	
  3045  068E  0020               	movlb	0	; select bank0
  3046  068F  0825               	movf	uart_send_ascii@data_size+1,w
  3047  0690  027D               	subwf	uart_send_ascii@i+1,w
  3048  0691  1D03               	skipz
  3049  0692  2E95               	goto	u1025
  3050  0693  0824               	movf	uart_send_ascii@data_size,w
  3051  0694  027C               	subwf	uart_send_ascii@i,w
  3052  0695                     u1025:	
  3053  0695  1C03               	skipc
  3054  0696  2E98               	goto	u1021
  3055  0697  2E99               	goto	u1020
  3056  0698                     u1021:	
  3057  0698  2E85               	goto	l1575
  3058  0699                     u1020:	
  3059  0699                     l139:	
  3060  0699  0008               	return
  3061  069A                     __end_of_uart_send_ascii:	
  3062                           
  3063                           	psect	text2
  3064  0587                     __ptext2:	
  3065 ;; *************** function _uart_send_byte *****************
  3066 ;; Defined at:
  3067 ;;		line 14 in file "uart.c"
  3068 ;; Parameters:    Size  Location     Type
  3069 ;;  num             1    wreg     PTR void 
  3070 ;;		 -> main@t(2), 
  3071 ;; Auto vars:     Size  Location     Type
  3072 ;;  num             1    0[BANK0 ] PTR void 
  3073 ;;		 -> main@t(2), 
  3074 ;;  size            2    2[BANK0 ] unsigned int 
  3075 ;;  ptr             1    1[BANK0 ] PTR unsigned char 
  3076 ;;		 -> main@t(2), 
  3077 ;; Return value:  Size  Location     Type
  3078 ;;                  1    wreg      void 
  3079 ;; Registers used:
  3080 ;;		wreg, fsr1l, fsr1h, status,2, status,0, pclath, cstack
  3081 ;; Tracked objects:
  3082 ;;		On entry : 0/0
  3083 ;;		On exit  : 0/0
  3084 ;;		Unchanged: 0/0
  3085 ;; Data sizes:     COMMON   BANK0   BANK1   BANK2   BANK3   BANK4   BANK5   BANK6   BANK7   BANK8   BANK9  BANK10  BANK1
      +1  BANK12
  3086 ;;      Params:         0       0       0       0       0       0       0       0       0       0       0       0       
      +0       0
  3087 ;;      Locals:         0       4       0       0       0       0       0       0       0       0       0       0       
      +0       0
  3088 ;;      Temps:          1       0       0       0       0       0       0       0       0       0       0       0       
      +0       0
  3089 ;;      Totals:         1       4       0       0       0       0       0       0       0       0       0       0       
      +0       0
  3090 ;;Total ram usage:        5 bytes
  3091 ;; Hardware stack levels used:    1
  3092 ;; Hardware stack levels required when called:    2
  3093 ;; This function calls:
  3094 ;;		_memcpy
  3095 ;; This function is called by:
  3096 ;;		_uart_send_ascii
  3097 ;; This function uses a non-reentrant model
  3098 ;;
  3099                           
  3100                           
  3101                           ;psect for function _uart_send_byte
  3102  0587                     _uart_send_byte:	
  3103                           
  3104                           ;incstack = 0
  3105                           ; Regs used in _uart_send_byte: [wreg+fsr1l+fsr1h+status,2+status,0+pclath+cstack]
  3106                           ;uart_send_byte@num stored from wreg
  3107  0587  0020               	movlb	0	; select bank0
  3108  0588  00A0               	movwf	uart_send_byte@num
  3109  0589                     l1445:	
  3110                           
  3111                           ;uart.c: 14: void uart_send_byte(void* num);uart.c: 15: {;uart.c: 16:   unsigned char* p
      +                          tr = (unsigned char*)num;
  3112  0589  0820               	movf	uart_send_byte@num,w
  3113  058A  00FA               	movwf	??_uart_send_byte
  3114  058B  087A               	movf	??_uart_send_byte,w
  3115  058C  00A1               	movwf	uart_send_byte@ptr
  3116  058D                     l1447:	
  3117                           
  3118                           ;uart.c: 17:   for(size_t size = sizeof(*num); size > 0; size--)
  3119  058D  3001               	movlw	1
  3120  058E  00A2               	movwf	uart_send_byte@size
  3121  058F  3000               	movlw	0
  3122  0590  00A3               	movwf	uart_send_byte@size+1
  3123  0591                     l130:	
  3124  0591  0022               	movlb	2	; select bank2
  3125  0592  1C9E               	btfss	30,1	;volatile
  3126  0593  2D95               	goto	u921
  3127  0594  2D96               	goto	u920
  3128  0595                     u921:	
  3129  0595  2D91               	goto	l130
  3130  0596                     u920:	
  3131  0596                     l1453:	
  3132                           
  3133                           ;uart.c: 20:     memcpy(&TXREG, ptr++, 1);
  3134  0596  301A               	movlw	26
  3135  0597  00F0               	movwf	memcpy@d1
  3136  0598  3001               	movlw	1
  3137  0599  00F1               	movwf	memcpy@d1+1
  3138  059A  0020               	movlb	0	; select bank0
  3139  059B  0821               	movf	uart_send_byte@ptr,w
  3140  059C  00FA               	movwf	??_uart_send_byte
  3141  059D  087A               	movf	??_uart_send_byte,w
  3142  059E  00F2               	movwf	memcpy@s1
  3143  059F  3001               	movlw	1
  3144  05A0  00F3               	movwf	memcpy@n
  3145  05A1  3000               	movlw	0
  3146  05A2  00F4               	movwf	memcpy@n+1
  3147  05A3  3185  25B6  3185   	fcall	_memcpy
  3148  05A6                     l1455:	
  3149  05A6  3001               	movlw	1
  3150  05A7  00FA               	movwf	??_uart_send_byte
  3151  05A8  087A               	movf	??_uart_send_byte,w
  3152  05A9  0020               	movlb	0	; select bank0
  3153  05AA  07A1               	addwf	uart_send_byte@ptr,f
  3154  05AB                     l1457:	
  3155                           
  3156                           ;uart.c: 21:   }
  3157  05AB  3001               	movlw	1
  3158  05AC  02A2               	subwf	uart_send_byte@size,f
  3159  05AD  3000               	movlw	0
  3160  05AE  3BA3               	subwfb	uart_send_byte@size+1,f
  3161  05AF                     l1459:	
  3162  05AF  0822               	movf	uart_send_byte@size,w
  3163  05B0  0423               	iorwf	uart_send_byte@size+1,w
  3164  05B1  1D03               	btfss	3,2
  3165  05B2  2DB4               	goto	u931
  3166  05B3  2DB5               	goto	u930
  3167  05B4                     u931:	
  3168  05B4  2D91               	goto	l130
  3169  05B5                     u930:	
  3170  05B5                     l133:	
  3171  05B5  0008               	return
  3172  05B6                     __end_of_uart_send_byte:	
  3173                           
  3174                           	psect	text3
  3175  05B6                     __ptext3:	
  3176 ;; *************** function _memcpy *****************
  3177 ;; Defined at:
  3178 ;;		line 4 in file "C:\Program Files (x86)\Microchip\xc8\v2.10\pic\sources\c99\common\memcpy.c"
  3179 ;; Parameters:    Size  Location     Type
  3180 ;;  d1              2    0[COMMON] PTR void 
  3181 ;;		 -> TXREG(1), 
  3182 ;;  s1              1    2[COMMON] PTR const void 
  3183 ;;		 -> main@t(2), 
  3184 ;;  n               2    3[COMMON] unsigned int 
  3185 ;; Auto vars:     Size  Location     Type
  3186 ;;  d               2    6[COMMON] PTR unsigned char 
  3187 ;;		 -> TXREG(1), 
  3188 ;;  s               1    9[COMMON] PTR const unsigned char 
  3189 ;;		 -> main@t(2), 
  3190 ;;  tmp             1    8[COMMON] unsigned char 
  3191 ;; Return value:  Size  Location     Type
  3192 ;;                  2    0[COMMON] PTR void 
  3193 ;; Registers used:
  3194 ;;		wreg, fsr1l, fsr1h, status,2, status,0
  3195 ;; Tracked objects:
  3196 ;;		On entry : 0/0
  3197 ;;		On exit  : 0/0
  3198 ;;		Unchanged: 0/0
  3199 ;; Data sizes:     COMMON   BANK0   BANK1   BANK2   BANK3   BANK4   BANK5   BANK6   BANK7   BANK8   BANK9  BANK10  BANK1
      +1  BANK12
  3200 ;;      Params:         5       0       0       0       0       0       0       0       0       0       0       0       
      +0       0
  3201 ;;      Locals:         4       0       0       0       0       0       0       0       0       0       0       0       
      +0       0
  3202 ;;      Temps:          1       0       0       0       0       0       0       0       0       0       0       0       
      +0       0
  3203 ;;      Totals:        10       0       0       0       0       0       0       0       0       0       0       0       
      +0       0
  3204 ;;Total ram usage:       10 bytes
  3205 ;; Hardware stack levels used:    1
  3206 ;; Hardware stack levels required when called:    1
  3207 ;; This function calls:
  3208 ;;		Nothing
  3209 ;; This function is called by:
  3210 ;;		_uart_send_byte
  3211 ;; This function uses a non-reentrant model
  3212 ;;
  3213                           
  3214                           
  3215                           ;psect for function _memcpy
  3216  05B6                     _memcpy:	
  3217  05B6                     l1423:	
  3218                           ;incstack = 0
  3219                           ; Regs used in _memcpy: [wreg+fsr1l+fsr1h+status,2+status,0]
  3220                           
  3221  05B6  0872               	movf	memcpy@s1,w
  3222  05B7  00F5               	movwf	??_memcpy
  3223  05B8  0875               	movf	??_memcpy,w
  3224  05B9  00F9               	movwf	memcpy@s
  3225  05BA  0871               	movf	memcpy@d1+1,w
  3226  05BB  00F7               	movwf	memcpy@d+1
  3227  05BC  0870               	movf	memcpy@d1,w
  3228  05BD  00F6               	movwf	memcpy@d
  3229  05BE  2DD4               	goto	l1433
  3230  05BF                     l1425:	
  3231  05BF  0879               	movf	memcpy@s,w
  3232  05C0  0086               	movwf	6
  3233  05C1  0187               	clrf	7
  3234  05C2  0801               	movf	1,w
  3235  05C3  00F5               	movwf	??_memcpy
  3236  05C4  0875               	movf	??_memcpy,w
  3237  05C5  00F8               	movwf	memcpy@tmp
  3238  05C6                     l1427:	
  3239  05C6  3001               	movlw	1
  3240  05C7  00F5               	movwf	??_memcpy
  3241  05C8  0875               	movf	??_memcpy,w
  3242  05C9  07F9               	addwf	memcpy@s,f
  3243  05CA                     l1429:	
  3244  05CA  0876               	movf	memcpy@d,w
  3245  05CB  0086               	movwf	6
  3246  05CC  0877               	movf	memcpy@d+1,w
  3247  05CD  0087               	movwf	7
  3248  05CE  0878               	movf	memcpy@tmp,w
  3249  05CF  0081               	movwf	1
  3250  05D0                     l1431:	
  3251  05D0  3001               	movlw	1
  3252  05D1  07F6               	addwf	memcpy@d,f
  3253  05D2  3000               	movlw	0
  3254  05D3  3DF7               	addwfc	memcpy@d+1,f
  3255  05D4                     l1433:	
  3256  05D4  3001               	movlw	1
  3257  05D5  02F3               	subwf	memcpy@n,f
  3258  05D6  3000               	movlw	0
  3259  05D7  3BF4               	subwfb	memcpy@n+1,f
  3260  05D8  0A73               	incf	memcpy@n,w
  3261  05D9  1D03               	skipz
  3262  05DA  2DDF               	goto	u911
  3263  05DB  0A74               	incf	memcpy@n+1,w
  3264  05DC  1D03               	btfss	3,2
  3265  05DD  2DDF               	goto	u911
  3266  05DE  2DE0               	goto	u910
  3267  05DF                     u911:	
  3268  05DF  2DBF               	goto	l1425
  3269  05E0                     u910:	
  3270  05E0                     l801:	
  3271  05E0  0008               	return
  3272  05E1                     __end_of_memcpy:	
  3273                           
  3274                           	psect	text4
  3275  064B                     __ptext4:	
  3276 ;; *************** function _lcd_write_ascii *****************
  3277 ;; Defined at:
  3278 ;;		line 112 in file "lcd.c"
  3279 ;; Parameters:    Size  Location     Type
  3280 ;;  str             2    2[COMMON] PTR unsigned char 
  3281 ;;		 -> main@t(2), STR_1(7), 
  3282 ;;  data_size       2    4[COMMON] unsigned int 
  3283 ;; Auto vars:     Size  Location     Type
  3284 ;;  i               2    6[COMMON] unsigned int 
  3285 ;; Return value:  Size  Location     Type
  3286 ;;                  1    wreg      void 
  3287 ;; Registers used:
  3288 ;;		wreg, fsr0l, fsr0h, status,2, status,0, pclath, cstack
  3289 ;; Tracked objects:
  3290 ;;		On entry : 0/0
  3291 ;;		On exit  : 0/0
  3292 ;;		Unchanged: 0/0
  3293 ;; Data sizes:     COMMON   BANK0   BANK1   BANK2   BANK3   BANK4   BANK5   BANK6   BANK7   BANK8   BANK9  BANK10  BANK1
      +1  BANK12
  3294 ;;      Params:         4       0       0       0       0       0       0       0       0       0       0       0       
      +0       0
  3295 ;;      Locals:         2       0       0       0       0       0       0       0       0       0       0       0       
      +0       0
  3296 ;;      Temps:          0       0       0       0       0       0       0       0       0       0       0       0       
      +0       0
  3297 ;;      Totals:         6       0       0       0       0       0       0       0       0       0       0       0       
      +0       0
  3298 ;;Total ram usage:        6 bytes
  3299 ;; Hardware stack levels used:    1
  3300 ;; Hardware stack levels required when called:    3
  3301 ;; This function calls:
  3302 ;;		_lcd_send_data
  3303 ;; This function is called by:
  3304 ;;		_main
  3305 ;; This function uses a non-reentrant model
  3306 ;;
  3307                           
  3308                           
  3309                           ;psect for function _lcd_write_ascii
  3310  064B                     _lcd_write_ascii:	
  3311  064B                     l1565:	
  3312                           ;incstack = 0
  3313                           ; Regs used in _lcd_write_ascii: [wreg-fsr0h+status,2+status,0+pclath+cstack]
  3314                           
  3315                           
  3316                           ;lcd.c: 113:     for (size_t i = 0; i < data_size; i++){
  3317  064B  01F6               	clrf	lcd_write_ascii@i
  3318  064C  01F7               	clrf	lcd_write_ascii@i+1
  3319  064D  2E5C               	goto	l1571
  3320  064E                     l1567:	
  3321                           
  3322                           ;lcd.c: 114:         lcd_send_data(str[i]);
  3323  064E  0872               	movf	lcd_write_ascii@str,w
  3324  064F  0776               	addwf	lcd_write_ascii@i,w
  3325  0650  0084               	movwf	4
  3326  0651  0873               	movf	lcd_write_ascii@str+1,w
  3327  0652  3D77               	addwfc	lcd_write_ascii@i+1,w
  3328  0653  0085               	movwf	5
  3329  0654  0800               	movf	0,w	;code access
  3330  0655  3186  26D1  3186   	fcall	_lcd_send_data
  3331  0658                     l1569:	
  3332                           
  3333                           ;lcd.c: 115:     }
  3334  0658  3001               	movlw	1
  3335  0659  07F6               	addwf	lcd_write_ascii@i,f
  3336  065A  3000               	movlw	0
  3337  065B  3DF7               	addwfc	lcd_write_ascii@i+1,f
  3338  065C                     l1571:	
  3339  065C  0875               	movf	lcd_write_ascii@data_size+1,w
  3340  065D  0277               	subwf	lcd_write_ascii@i+1,w
  3341  065E  1D03               	skipz
  3342  065F  2E62               	goto	u1015
  3343  0660  0874               	movf	lcd_write_ascii@data_size,w
  3344  0661  0276               	subwf	lcd_write_ascii@i,w
  3345  0662                     u1015:	
  3346  0662  1C03               	skipc
  3347  0663  2E65               	goto	u1011
  3348  0664  2E66               	goto	u1010
  3349  0665                     u1011:	
  3350  0665  2E4E               	goto	l1567
  3351  0666                     u1010:	
  3352  0666                     l193:	
  3353  0666  0008               	return
  3354  0667                     __end_of_lcd_write_ascii:	
  3355                           
  3356                           	psect	text5
  3357  06D1                     __ptext5:	
  3358 ;; *************** function _lcd_send_data *****************
  3359 ;; Defined at:
  3360 ;;		line 47 in file "lcd.c"
  3361 ;; Parameters:    Size  Location     Type
  3362 ;;  data            1    wreg     unsigned char 
  3363 ;; Auto vars:     Size  Location     Type
  3364 ;;  data            1    1[COMMON] unsigned char 
  3365 ;; Return value:  Size  Location     Type
  3366 ;;                  1    wreg      void 
  3367 ;; Registers used:
  3368 ;;		wreg, status,2, status,0, pclath, cstack
  3369 ;; Tracked objects:
  3370 ;;		On entry : 0/0
  3371 ;;		On exit  : 0/0
  3372 ;;		Unchanged: 0/0
  3373 ;; Data sizes:     COMMON   BANK0   BANK1   BANK2   BANK3   BANK4   BANK5   BANK6   BANK7   BANK8   BANK9  BANK10  BANK1
      +1  BANK12
  3374 ;;      Params:         0       0       0       0       0       0       0       0       0       0       0       0       
      +0       0
  3375 ;;      Locals:         1       0       0       0       0       0       0       0       0       0       0       0       
      +0       0
  3376 ;;      Temps:          0       0       0       0       0       0       0       0       0       0       0       0       
      +0       0
  3377 ;;      Totals:         1       0       0       0       0       0       0       0       0       0       0       0       
      +0       0
  3378 ;;Total ram usage:        1 bytes
  3379 ;; Hardware stack levels used:    1
  3380 ;; Hardware stack levels required when called:    2
  3381 ;; This function calls:
  3382 ;;		_lcd_write_data
  3383 ;; This function is called by:
  3384 ;;		_main
  3385 ;;		_lcd_write_ascii
  3386 ;; This function uses a non-reentrant model
  3387 ;;
  3388                           
  3389                           
  3390                           ;psect for function _lcd_send_data
  3391  06D1                     _lcd_send_data:	
  3392                           
  3393                           ;incstack = 0
  3394                           ; Regs used in _lcd_send_data: [wreg+status,2+status,0+pclath+cstack]
  3395                           ;lcd_send_data@data stored from wreg
  3396  06D1  00F1               	movwf	lcd_send_data@data
  3397  06D2                     l1441:	
  3398                           
  3399                           ;lcd.c: 48:     LATDbits.LATD5 = 1;
  3400  06D2  0020               	movlb	0	; select bank0
  3401  06D3  1699               	bsf	25,5	;volatile
  3402                           
  3403                           ;lcd.c: 49:     LATDbits.LATD6 = 0;
  3404  06D4  1319               	bcf	25,6	;volatile
  3405  06D5                     l1443:	
  3406                           
  3407                           ;lcd.c: 50:     lcd_write_data(data);
  3408  06D5  0871               	movf	lcd_send_data@data,w
  3409  06D6  3186  26AF  3186   	fcall	_lcd_write_data
  3410  06D9                     l176:	
  3411  06D9  0008               	return
  3412  06DA                     __end_of_lcd_send_data:	
  3413                           
  3414                           	psect	text6
  3415  0605                     __ptext6:	
  3416 ;; *************** function _lcd_set_cursor *****************
  3417 ;; Defined at:
  3418 ;;		line 96 in file "lcd.c"
  3419 ;; Parameters:    Size  Location     Type
  3420 ;;  r               1    wreg     unsigned char 
  3421 ;;  c               1    2[COMMON] unsigned char 
  3422 ;; Auto vars:     Size  Location     Type
  3423 ;;  r               1    4[COMMON] unsigned char 
  3424 ;;  Temp            1    5[COMMON] unsigned char 
  3425 ;; Return value:  Size  Location     Type
  3426 ;;                  1    wreg      void 
  3427 ;; Registers used:
  3428 ;;		wreg, status,2, status,0, pclath, cstack
  3429 ;; Tracked objects:
  3430 ;;		On entry : 0/0
  3431 ;;		On exit  : 0/0
  3432 ;;		Unchanged: 0/0
  3433 ;; Data sizes:     COMMON   BANK0   BANK1   BANK2   BANK3   BANK4   BANK5   BANK6   BANK7   BANK8   BANK9  BANK10  BANK1
      +1  BANK12
  3434 ;;      Params:         1       0       0       0       0       0       0       0       0       0       0       0       
      +0       0
  3435 ;;      Locals:         2       0       0       0       0       0       0       0       0       0       0       0       
      +0       0
  3436 ;;      Temps:          1       0       0       0       0       0       0       0       0       0       0       0       
      +0       0
  3437 ;;      Totals:         4       0       0       0       0       0       0       0       0       0       0       0       
      +0       0
  3438 ;;Total ram usage:        4 bytes
  3439 ;; Hardware stack levels used:    1
  3440 ;; Hardware stack levels required when called:    3
  3441 ;; This function calls:
  3442 ;;		_lcd_send_cmd
  3443 ;; This function is called by:
  3444 ;;		_main
  3445 ;; This function uses a non-reentrant model
  3446 ;;
  3447                           
  3448                           
  3449                           ;psect for function _lcd_set_cursor
  3450  0605                     _lcd_set_cursor:	
  3451                           
  3452                           ;incstack = 0
  3453                           ; Regs used in _lcd_set_cursor: [wreg+status,2+status,0+pclath+cstack]
  3454                           ;lcd_set_cursor@r stored from wreg
  3455  0605  00F4               	movwf	lcd_set_cursor@r
  3456  0606                     l1551:	
  3457                           
  3458                           ;lcd.c: 96: void lcd_set_cursor(unsigned char r, unsigned char c);lcd.c: 97: {;lcd.c: 98
      +                          :   unsigned char Temp;;lcd.c: 99:   if(r == 1)
  3459  0606  0374               	decf	lcd_set_cursor@r,w
  3460  0607  1D03               	btfss	3,2
  3461  0608  2E0A               	goto	u991
  3462  0609  2E0B               	goto	u990
  3463  060A                     u991:	
  3464  060A  2E14               	goto	l1557
  3465  060B                     u990:	
  3466  060B                     l1553:	
  3467                           
  3468                           ;lcd.c: 100:   {;lcd.c: 101:     Temp = 0x80 + c - 1;
  3469  060B  0872               	movf	lcd_set_cursor@c,w
  3470  060C  3E7F               	addlw	127
  3471  060D  00F3               	movwf	??_lcd_set_cursor
  3472  060E  0873               	movf	??_lcd_set_cursor,w
  3473  060F  00F5               	movwf	lcd_set_cursor@Temp
  3474  0610                     l1555:	
  3475                           
  3476                           ;lcd.c: 102:     lcd_send_cmd(Temp);
  3477  0610  0875               	movf	lcd_set_cursor@Temp,w
  3478  0611  3186  26DA  3186   	fcall	_lcd_send_cmd
  3479  0614                     l1557:	
  3480                           
  3481                           ;lcd.c: 104:   if(r == 2)
  3482  0614  3002               	movlw	2
  3483  0615  0674               	xorwf	lcd_set_cursor@r,w
  3484  0616  1D03               	btfss	3,2
  3485  0617  2E19               	goto	u1001
  3486  0618  2E1A               	goto	u1000
  3487  0619                     u1001:	
  3488  0619  2E23               	goto	l1563
  3489  061A                     u1000:	
  3490  061A                     l1559:	
  3491                           
  3492                           ;lcd.c: 105:   {;lcd.c: 106:     Temp = 0xC0 + c - 1;
  3493  061A  0872               	movf	lcd_set_cursor@c,w
  3494  061B  3EBF               	addlw	191
  3495  061C  00F3               	movwf	??_lcd_set_cursor
  3496  061D  0873               	movf	??_lcd_set_cursor,w
  3497  061E  00F5               	movwf	lcd_set_cursor@Temp
  3498  061F                     l1561:	
  3499                           
  3500                           ;lcd.c: 107:     lcd_send_cmd(Temp);
  3501  061F  0875               	movf	lcd_set_cursor@Temp,w
  3502  0620  3186  26DA  3186   	fcall	_lcd_send_cmd
  3503  0623                     l1563:	
  3504                           
  3505                           ;lcd.c: 109:   _delay((unsigned long)((80)*(4000000/4000000.0)));
  3506  0623  301A               	movlw	26
  3507  0624                     u1797:	
  3508  0624  0B89               	decfsz	9,f
  3509  0625  2E24               	goto	u1797
  3510  0626  3200               	nop2
  3511  0627                     l187:	
  3512  0627  0008               	return
  3513  0628                     __end_of_lcd_set_cursor:	
  3514                           
  3515                           	psect	text7
  3516  04DB                     __ptext7:	
  3517 ;; *************** function _lcd_init *****************
  3518 ;; Defined at:
  3519 ;;		line 61 in file "lcd.c"
  3520 ;; Parameters:    Size  Location     Type
  3521 ;;		None
  3522 ;; Auto vars:     Size  Location     Type
  3523 ;;		None
  3524 ;; Return value:  Size  Location     Type
  3525 ;;                  1    wreg      void 
  3526 ;; Registers used:
  3527 ;;		wreg, status,2, status,0, pclath, cstack
  3528 ;; Tracked objects:
  3529 ;;		On entry : 0/0
  3530 ;;		On exit  : 0/0
  3531 ;;		Unchanged: 0/0
  3532 ;; Data sizes:     COMMON   BANK0   BANK1   BANK2   BANK3   BANK4   BANK5   BANK6   BANK7   BANK8   BANK9  BANK10  BANK1
      +1  BANK12
  3533 ;;      Params:         0       0       0       0       0       0       0       0       0       0       0       0       
      +0       0
  3534 ;;      Locals:         0       0       0       0       0       0       0       0       0       0       0       0       
      +0       0
  3535 ;;      Temps:          1       0       0       0       0       0       0       0       0       0       0       0       
      +0       0
  3536 ;;      Totals:         1       0       0       0       0       0       0       0       0       0       0       0       
      +0       0
  3537 ;;Total ram usage:        1 bytes
  3538 ;; Hardware stack levels used:    1
  3539 ;; Hardware stack levels required when called:    4
  3540 ;; This function calls:
  3541 ;;		_display_controll
  3542 ;;		_lcd_send_cmd
  3543 ;; This function is called by:
  3544 ;;		_main
  3545 ;; This function uses a non-reentrant model
  3546 ;;
  3547                           
  3548                           
  3549                           ;psect for function _lcd_init
  3550  04DB                     _lcd_init:	
  3551  04DB                     l1523:	
  3552                           ;incstack = 0
  3553                           ; Regs used in _lcd_init: [wreg+status,2+status,0+pclath+cstack]
  3554                           
  3555                           
  3556                           ;lcd.c: 63:     TRISDbits.TRISD5 = 0;
  3557  04DB  0020               	movlb	0	; select bank0
  3558  04DC  1294               	bcf	20,5	;volatile
  3559                           
  3560                           ;lcd.c: 64:     TRISDbits.TRISD6 = 0;
  3561  04DD  1314               	bcf	20,6	;volatile
  3562                           
  3563                           ;lcd.c: 65:     TRISDbits.TRISD7 = 0;
  3564  04DE  1394               	bcf	20,7	;volatile
  3565                           
  3566                           ;lcd.c: 67:     LATDbits.LATD5 = 0;
  3567  04DF  1299               	bcf	25,5	;volatile
  3568                           
  3569                           ;lcd.c: 68:     LATDbits.LATD6 = 0;
  3570  04E0  1319               	bcf	25,6	;volatile
  3571                           
  3572                           ;lcd.c: 69:     LATDbits.LATD7 = 0;
  3573  04E1  1399               	bcf	25,7	;volatile
  3574  04E2                     l1525:	
  3575                           
  3576                           ;lcd.c: 71:     _delay((unsigned long)((150)*(4000000/4000.0)));
  3577  04E2  30C3               	movlw	195
  3578  04E3  00FB               	movwf	??_lcd_init
  3579  04E4  30CD               	movlw	205
  3580  04E5                     u1807:	
  3581  04E5  0B89               	decfsz	9,f
  3582  04E6  2CE5               	goto	u1807
  3583  04E7  0BFB               	decfsz	??_lcd_init,f
  3584  04E8  2CE5               	goto	u1807
  3585  04E9  0000               	nop
  3586  04EA                     l1527:	
  3587                           
  3588                           ;lcd.c: 72:     lcd_send_cmd(0b00110000);
  3589  04EA  3030               	movlw	48
  3590  04EB  3186  26DA  3184   	fcall	_lcd_send_cmd
  3591  04EE                     l1529:	
  3592                           
  3593                           ;lcd.c: 73:     _delay((unsigned long)((6)*(4000000/4000.0)));
  3594  04EE  3008               	movlw	8
  3595  04EF  00FB               	movwf	??_lcd_init
  3596  04F0  30CA               	movlw	202
  3597  04F1                     u1817:	
  3598  04F1  0B89               	decfsz	9,f
  3599  04F2  2CF1               	goto	u1817
  3600  04F3  0BFB               	decfsz	??_lcd_init,f
  3601  04F4  2CF1               	goto	u1817
  3602                           
  3603                           ;lcd.c: 75:     lcd_send_cmd(0b00110000);
  3604  04F5  3030               	movlw	48
  3605  04F6  3186  26DA  3184   	fcall	_lcd_send_cmd
  3606  04F9                     l1531:	
  3607                           
  3608                           ;lcd.c: 76:     _delay((unsigned long)((150)*(4000000/4000000.0)));
  3609  04F9  3032               	movlw	50
  3610  04FA                     u1827:	
  3611  04FA  0B89               	decfsz	9,f
  3612  04FB  2CFA               	goto	u1827
  3613  04FC                     l1533:	
  3614                           
  3615                           ;lcd.c: 77:     lcd_send_cmd(0b00110000);
  3616  04FC  3030               	movlw	48
  3617  04FD  3186  26DA  3184   	fcall	_lcd_send_cmd
  3618                           
  3619                           ;lcd.c: 78:     _delay((unsigned long)((150)*(4000000/4000000.0)));
  3620  0500  3032               	movlw	50
  3621  0501                     u1837:	
  3622  0501  0B89               	decfsz	9,f
  3623  0502  2D01               	goto	u1837
  3624  0503                     l1535:	
  3625                           
  3626                           ;lcd.c: 81:     lcd_send_cmd(0b00111000);
  3627  0503  3038               	movlw	56
  3628  0504  3186  26DA  3184   	fcall	_lcd_send_cmd
  3629  0507                     l1537:	
  3630                           
  3631                           ;lcd.c: 82:     _delay((unsigned long)((100)*(4000000/4000000.0)));
  3632  0507  3021               	movlw	33
  3633  0508                     u1847:	
  3634  0508  0B89               	decfsz	9,f
  3635  0509  2D08               	goto	u1847
  3636  050A  0000               	nop
  3637                           
  3638                           ;lcd.c: 83:     display_controll(0, 0, 0);
  3639  050B  01F2               	clrf	display_controll@c
  3640  050C  01F3               	clrf	display_controll@b
  3641  050D  3000               	movlw	0
  3642  050E  3185  25E1  3184   	fcall	_display_controll
  3643  0511                     l1539:	
  3644                           
  3645                           ;lcd.c: 84:     _delay((unsigned long)((100)*(4000000/4000000.0)));
  3646  0511  3021               	movlw	33
  3647  0512                     u1857:	
  3648  0512  0B89               	decfsz	9,f
  3649  0513  2D12               	goto	u1857
  3650  0514  0000               	nop
  3651  0515                     l1541:	
  3652                           
  3653                           ;lcd.c: 85:     lcd_send_cmd(1);
  3654  0515  3001               	movlw	1
  3655  0516  3186  26DA  3184   	fcall	_lcd_send_cmd
  3656                           
  3657                           ;lcd.c: 86:     _delay((unsigned long)((3)*(4000000/4000.0)));
  3658  0519  3004               	movlw	4
  3659  051A  00FB               	movwf	??_lcd_init
  3660  051B  30E4               	movlw	228
  3661  051C                     u1867:	
  3662  051C  0B89               	decfsz	9,f
  3663  051D  2D1C               	goto	u1867
  3664  051E  0BFB               	decfsz	??_lcd_init,f
  3665  051F  2D1C               	goto	u1867
  3666  0520  3200               	nop2
  3667  0521                     l1543:	
  3668                           
  3669                           ;lcd.c: 87:     lcd_send_cmd(0b00000110);
  3670  0521  3006               	movlw	6
  3671  0522  3186  26DA  3184   	fcall	_lcd_send_cmd
  3672  0525                     l1545:	
  3673                           
  3674                           ;lcd.c: 88:     _delay((unsigned long)((100)*(4000000/4000000.0)));
  3675  0525  3021               	movlw	33
  3676  0526                     u1877:	
  3677  0526  0B89               	decfsz	9,f
  3678  0527  2D26               	goto	u1877
  3679  0528  0000               	nop
  3680                           
  3681                           ;lcd.c: 91:     display_controll(1, 0, 0);
  3682  0529  01F2               	clrf	display_controll@c
  3683  052A  01F3               	clrf	display_controll@b
  3684  052B  3001               	movlw	1
  3685  052C  3185  25E1  3184   	fcall	_display_controll
  3686  052F                     l1547:	
  3687                           
  3688                           ;lcd.c: 92:     _delay((unsigned long)((50)*(4000000/4000000.0)));
  3689  052F  3010               	movlw	16
  3690  0530                     u1887:	
  3691  0530  0B89               	decfsz	9,f
  3692  0531  2D30               	goto	u1887
  3693  0532  3200               	nop2
  3694  0533                     l182:	
  3695  0533  0008               	return
  3696  0534                     __end_of_lcd_init:	
  3697                           
  3698                           	psect	text8
  3699  05E1                     __ptext8:	
  3700 ;; *************** function _display_controll *****************
  3701 ;; Defined at:
  3702 ;;		line 53 in file "lcd.c"
  3703 ;; Parameters:    Size  Location     Type
  3704 ;;  d               1    wreg     unsigned char 
  3705 ;;  c               1    2[COMMON] unsigned char 
  3706 ;;  b               1    3[COMMON] unsigned char 
  3707 ;; Auto vars:     Size  Location     Type
  3708 ;;  d               1    9[COMMON] unsigned char 
  3709 ;;  cmd             1   10[COMMON] unsigned char 
  3710 ;; Return value:  Size  Location     Type
  3711 ;;                  1    wreg      void 
  3712 ;; Registers used:
  3713 ;;		wreg, status,2, status,0, pclath, cstack
  3714 ;; Tracked objects:
  3715 ;;		On entry : 0/0
  3716 ;;		On exit  : 0/0
  3717 ;;		Unchanged: 0/0
  3718 ;; Data sizes:     COMMON   BANK0   BANK1   BANK2   BANK3   BANK4   BANK5   BANK6   BANK7   BANK8   BANK9  BANK10  BANK1
      +1  BANK12
  3719 ;;      Params:         2       0       0       0       0       0       0       0       0       0       0       0       
      +0       0
  3720 ;;      Locals:         2       0       0       0       0       0       0       0       0       0       0       0       
      +0       0
  3721 ;;      Temps:          5       0       0       0       0       0       0       0       0       0       0       0       
      +0       0
  3722 ;;      Totals:         9       0       0       0       0       0       0       0       0       0       0       0       
      +0       0
  3723 ;;Total ram usage:        9 bytes
  3724 ;; Hardware stack levels used:    1
  3725 ;; Hardware stack levels required when called:    3
  3726 ;; This function calls:
  3727 ;;		_lcd_send_cmd
  3728 ;; This function is called by:
  3729 ;;		_lcd_init
  3730 ;; This function uses a non-reentrant model
  3731 ;;
  3732                           
  3733                           
  3734                           ;psect for function _display_controll
  3735  05E1                     _display_controll:	
  3736                           
  3737                           ;incstack = 0
  3738                           ; Regs used in _display_controll: [wreg+status,2+status,0+pclath+cstack]
  3739                           ;display_controll@d stored from wreg
  3740  05E1  00F9               	movwf	display_controll@d
  3741  05E2                     l1461:	
  3742                           
  3743                           ;lcd.c: 55:     unsigned char cmd = (8 | (d << 2)) | (8 | (c << 1)) | (8 | b);
  3744  05E2  3008               	movlw	8
  3745  05E3  0473               	iorwf	display_controll@b,w
  3746  05E4  00F4               	movwf	??_display_controll
  3747  05E5  0872               	movf	display_controll@c,w
  3748  05E6  00F5               	movwf	??_display_controll+1
  3749  05E7  3001               	movlw	1
  3750  05E8                     u945:	
  3751  05E8  35F5               	lslf	??_display_controll+1,f
  3752  05E9  0B89               	decfsz	9,f
  3753  05EA  2DE8               	goto	u945
  3754  05EB  3008               	movlw	8
  3755  05EC  0475               	iorwf	??_display_controll+1,w
  3756  05ED  00F6               	movwf	??_display_controll+2
  3757  05EE  0879               	movf	display_controll@d,w
  3758  05EF  00F7               	movwf	??_display_controll+3
  3759  05F0  3001               	movlw	1
  3760  05F1                     u955:	
  3761  05F1  35F7               	lslf	??_display_controll+3,f
  3762  05F2  3EFF               	addlw	-1
  3763  05F3  1D03               	skipz
  3764  05F4  2DF1               	goto	u955
  3765  05F5  3577               	lslf	??_display_controll+3,w
  3766  05F6  0476               	iorwf	??_display_controll+2,w
  3767  05F7  0474               	iorwf	??_display_controll,w
  3768  05F8  3808               	iorlw	8
  3769  05F9  00F8               	movwf	??_display_controll+4
  3770  05FA  0878               	movf	??_display_controll+4,w
  3771  05FB  00FA               	movwf	display_controll@cmd
  3772  05FC                     l1463:	
  3773                           
  3774                           ;lcd.c: 56:     lcd_send_cmd(cmd);
  3775  05FC  087A               	movf	display_controll@cmd,w
  3776  05FD  3186  26DA  3185   	fcall	_lcd_send_cmd
  3777  0600                     l1465:	
  3778                           
  3779                           ;lcd.c: 57:     _delay((unsigned long)((50)*(4000000/4000000.0)));
  3780  0600  3010               	movlw	16
  3781  0601                     u1897:	
  3782  0601  0B89               	decfsz	9,f
  3783  0602  2E01               	goto	u1897
  3784  0603  3200               	nop2
  3785  0604                     l179:	
  3786  0604  0008               	return
  3787  0605                     __end_of_display_controll:	
  3788                           
  3789                           	psect	text9
  3790  06DA                     __ptext9:	
  3791 ;; *************** function _lcd_send_cmd *****************
  3792 ;; Defined at:
  3793 ;;		line 40 in file "lcd.c"
  3794 ;; Parameters:    Size  Location     Type
  3795 ;;  cmd             1    wreg     unsigned char 
  3796 ;; Auto vars:     Size  Location     Type
  3797 ;;  cmd             1    1[COMMON] unsigned char 
  3798 ;; Return value:  Size  Location     Type
  3799 ;;                  1    wreg      void 
  3800 ;; Registers used:
  3801 ;;		wreg, status,2, status,0, pclath, cstack
  3802 ;; Tracked objects:
  3803 ;;		On entry : 0/0
  3804 ;;		On exit  : 0/0
  3805 ;;		Unchanged: 0/0
  3806 ;; Data sizes:     COMMON   BANK0   BANK1   BANK2   BANK3   BANK4   BANK5   BANK6   BANK7   BANK8   BANK9  BANK10  BANK1
      +1  BANK12
  3807 ;;      Params:         0       0       0       0       0       0       0       0       0       0       0       0       
      +0       0
  3808 ;;      Locals:         1       0       0       0       0       0       0       0       0       0       0       0       
      +0       0
  3809 ;;      Temps:          0       0       0       0       0       0       0       0       0       0       0       0       
      +0       0
  3810 ;;      Totals:         1       0       0       0       0       0       0       0       0       0       0       0       
      +0       0
  3811 ;;Total ram usage:        1 bytes
  3812 ;; Hardware stack levels used:    1
  3813 ;; Hardware stack levels required when called:    2
  3814 ;; This function calls:
  3815 ;;		_lcd_write_data
  3816 ;; This function is called by:
  3817 ;;		_display_controll
  3818 ;;		_lcd_init
  3819 ;;		_lcd_set_cursor
  3820 ;; This function uses a non-reentrant model
  3821 ;;
  3822                           
  3823                           
  3824                           ;psect for function _lcd_send_cmd
  3825  06DA                     _lcd_send_cmd:	
  3826                           
  3827                           ;incstack = 0
  3828                           ; Regs used in _lcd_send_cmd: [wreg+status,2+status,0+pclath+cstack]
  3829                           ;lcd_send_cmd@cmd stored from wreg
  3830  06DA  00F1               	movwf	lcd_send_cmd@cmd
  3831  06DB                     l1435:	
  3832                           
  3833                           ;lcd.c: 41:     LATDbits.LATD5 = 0;
  3834  06DB  0020               	movlb	0	; select bank0
  3835  06DC  1299               	bcf	25,5	;volatile
  3836                           
  3837                           ;lcd.c: 42:     LATDbits.LATD6 = 0;
  3838  06DD  1319               	bcf	25,6	;volatile
  3839  06DE                     l1437:	
  3840                           
  3841                           ;lcd.c: 43:     lcd_write_data(cmd);
  3842  06DE  0871               	movf	lcd_send_cmd@cmd,w
  3843  06DF  3186  26AF  3186   	fcall	_lcd_write_data
  3844  06E2                     l173:	
  3845  06E2  0008               	return
  3846  06E3                     __end_of_lcd_send_cmd:	
  3847                           
  3848                           	psect	text10
  3849  06AF                     __ptext10:	
  3850 ;; *************** function _lcd_write_data *****************
  3851 ;; Defined at:
  3852 ;;		line 22 in file "lcd.c"
  3853 ;; Parameters:    Size  Location     Type
  3854 ;;  data            1    wreg     unsigned char 
  3855 ;; Auto vars:     Size  Location     Type
  3856 ;;  data            1    0[COMMON] unsigned char 
  3857 ;; Return value:  Size  Location     Type
  3858 ;;                  1    wreg      void 
  3859 ;; Registers used:
  3860 ;;		wreg, status,2
  3861 ;; Tracked objects:
  3862 ;;		On entry : 0/0
  3863 ;;		On exit  : 0/0
  3864 ;;		Unchanged: 0/0
  3865 ;; Data sizes:     COMMON   BANK0   BANK1   BANK2   BANK3   BANK4   BANK5   BANK6   BANK7   BANK8   BANK9  BANK10  BANK1
      +1  BANK12
  3866 ;;      Params:         0       0       0       0       0       0       0       0       0       0       0       0       
      +0       0
  3867 ;;      Locals:         1       0       0       0       0       0       0       0       0       0       0       0       
      +0       0
  3868 ;;      Temps:          0       0       0       0       0       0       0       0       0       0       0       0       
      +0       0
  3869 ;;      Totals:         1       0       0       0       0       0       0       0       0       0       0       0       
      +0       0
  3870 ;;Total ram usage:        1 bytes
  3871 ;; Hardware stack levels used:    1
  3872 ;; Hardware stack levels required when called:    1
  3873 ;; This function calls:
  3874 ;;		Nothing
  3875 ;; This function is called by:
  3876 ;;		_lcd_send_cmd
  3877 ;;		_lcd_send_data
  3878 ;; This function uses a non-reentrant model
  3879 ;;
  3880                           
  3881                           
  3882                           ;psect for function _lcd_write_data
  3883  06AF                     _lcd_write_data:	
  3884                           
  3885                           ;incstack = 0
  3886                           ; Regs used in _lcd_write_data: [wreg+status,2]
  3887                           ;lcd_write_data@data stored from wreg
  3888  06AF  00F0               	movwf	lcd_write_data@data
  3889  06B0                     l1407:	
  3890                           
  3891                           ;lcd.c: 23:     LATDbits.LATD7 = 0;
  3892  06B0  0020               	movlb	0	; select bank0
  3893  06B1  1399               	bcf	25,7	;volatile
  3894  06B2                     l1409:	
  3895                           
  3896                           ;lcd.c: 24:     TRISB = 0;
  3897  06B2  0192               	clrf	18	;volatile
  3898  06B3                     l1411:	
  3899                           
  3900                           ;lcd.c: 25:     LATB = data;
  3901  06B3  0870               	movf	lcd_write_data@data,w
  3902  06B4  0097               	movwf	23	;volatile
  3903  06B5                     l1413:	
  3904                           
  3905                           ;lcd.c: 26:     LATDbits.LATD7 = 1;
  3906  06B5  1799               	bsf	25,7	;volatile
  3907  06B6                     l1415:	
  3908                           
  3909                           ;lcd.c: 27:     _delay((unsigned long)((500)*(4000000/4000000.0)));
  3910  06B6  30A6               	movlw	166
  3911  06B7                     u1907:	
  3912  06B7  0B89               	decfsz	9,f
  3913  06B8  2EB7               	goto	u1907
  3914  06B9  3200               	nop2
  3915  06BA                     l1417:	
  3916                           
  3917                           ;lcd.c: 28:     LATDbits.LATD7 = 0;
  3918  06BA  0020               	movlb	0	; select bank0
  3919  06BB  1399               	bcf	25,7	;volatile
  3920  06BC                     l1419:	
  3921                           
  3922                           ;lcd.c: 29:     _delay((unsigned long)((500)*(4000000/4000000.0)));
  3923  06BC  30A6               	movlw	166
  3924  06BD                     u1917:	
  3925  06BD  0B89               	decfsz	9,f
  3926  06BE  2EBD               	goto	u1917
  3927  06BF  3200               	nop2
  3928  06C0                     l167:	
  3929  06C0  0008               	return
  3930  06C1                     __end_of_lcd_write_data:	
  3931                           
  3932                           	psect	text11
  3933  0667                     __ptext11:	
  3934 ;; *************** function _adc_init *****************
  3935 ;; Defined at:
  3936 ;;		line 96 in file "main.c"
  3937 ;; Parameters:    Size  Location     Type
  3938 ;;		None
  3939 ;; Auto vars:     Size  Location     Type
  3940 ;;		None
  3941 ;; Return value:  Size  Location     Type
  3942 ;;                  1    wreg      void 
  3943 ;; Registers used:
  3944 ;;		wreg, status,2, status,0
  3945 ;; Tracked objects:
  3946 ;;		On entry : 0/0
  3947 ;;		On exit  : 0/0
  3948 ;;		Unchanged: 0/0
  3949 ;; Data sizes:     COMMON   BANK0   BANK1   BANK2   BANK3   BANK4   BANK5   BANK6   BANK7   BANK8   BANK9  BANK10  BANK1
      +1  BANK12
  3950 ;;      Params:         0       0       0       0       0       0       0       0       0       0       0       0       
      +0       0
  3951 ;;      Locals:         0       0       0       0       0       0       0       0       0       0       0       0       
      +0       0
  3952 ;;      Temps:          0       0       0       0       0       0       0       0       0       0       0       0       
      +0       0
  3953 ;;      Totals:         0       0       0       0       0       0       0       0       0       0       0       0       
      +0       0
  3954 ;;Total ram usage:        0 bytes
  3955 ;; Hardware stack levels used:    1
  3956 ;; Hardware stack levels required when called:    1
  3957 ;; This function calls:
  3958 ;;		Nothing
  3959 ;; This function is called by:
  3960 ;;		_main
  3961 ;; This function uses a non-reentrant model
  3962 ;;
  3963                           
  3964                           
  3965                           ;psect for function _adc_init
  3966  0667                     _adc_init:	
  3967  0667                     l1493:	
  3968                           ;incstack = 0
  3969                           ; Regs used in _adc_init: [wreg+status,2+status,0]
  3970                           
  3971                           
  3972                           ;main.c: 97:     TRISAbits.TRISA4 = 1;
  3973  0667  0020               	movlb	0	; select bank0
  3974  0668  1611               	bsf	17,4	;volatile
  3975                           
  3976                           ;main.c: 98:     ANSELAbits.ANSA4 = 1;
  3977  0669  003E               	movlb	30	; select bank30
  3978  066A  1638               	bsf	56,4	;volatile
  3979                           
  3980                           ;main.c: 99:     ADIF = 0;
  3981  066B  002E               	movlb	14	; select bank14
  3982  066C  100D               	bcf	13,0	;volatile
  3983                           
  3984                           ;main.c: 100:     ADIE = 1;
  3985  066D  1417               	bsf	23,0	;volatile
  3986  066E                     l1495:	
  3987                           
  3988                           ;main.c: 102:     ADCLK = 1;
  3989  066E  3001               	movlw	1
  3990  066F  0021               	movlb	1	; select bank1
  3991  0670  0098               	movwf	24	;volatile
  3992  0671                     l1497:	
  3993                           
  3994                           ;main.c: 104:     ADREFbits.ADNREF = 0;
  3995  0671  121A               	bcf	26,4	;volatile
  3996  0672                     l1499:	
  3997                           
  3998                           ;main.c: 105:     ADREFbits.ADPREF = 0b0;
  3999  0672  30FC               	movlw	-4
  4000  0673  059A               	andwf	26,f	;volatile
  4001  0674                     l1501:	
  4002                           
  4003                           ;main.c: 107:     ADPCH = 0b000100;
  4004  0674  3004               	movlw	4
  4005  0675  009E               	movwf	30	;volatile
  4006                           
  4007                           ;main.c: 109:     ADCON3bits.ADTMD = 3;
  4008  0676  0816               	movf	22,w	;volatile
  4009  0677  39F8               	andlw	-8
  4010  0678  3803               	iorlw	3
  4011  0679  0096               	movwf	22	;volatile
  4012  067A                     l1503:	
  4013                           
  4014                           ;main.c: 111:     ADFRM0 = 1;
  4015  067A  1513               	bsf	19,2	;volatile
  4016  067B                     l1505:	
  4017                           
  4018                           ;main.c: 113:     ADCON0bits.ADON = 1;
  4019  067B  1793               	bsf	19,7	;volatile
  4020  067C                     l1507:	
  4021                           
  4022                           ;main.c: 114:     _delay((unsigned long)((10)*(4000000/4000000.0)));
  4023  067C  3003               	movlw	3
  4024  067D                     u1927:	
  4025  067D  0B89               	decfsz	9,f
  4026  067E  2E7D               	goto	u1927
  4027  067F  0000               	nop
  4028  0680                     l111:	
  4029  0680  0008               	return
  4030  0681                     __end_of_adc_init:	
  4031                           
  4032                           	psect	text12
  4033  035B                     __ptext12:	
  4034 ;; *************** function ___xxtofl *****************
  4035 ;; Defined at:
  4036 ;;		line 10 in file "C:\Program Files (x86)\Microchip\xc8\v2.10\pic\sources\c99\common\xxtofl.c"
  4037 ;; Parameters:    Size  Location     Type
  4038 ;;  sign            1    wreg     unsigned char 
  4039 ;;  val             4    0[COMMON] long 
  4040 ;; Auto vars:     Size  Location     Type
  4041 ;;  sign            1    8[COMMON] unsigned char 
  4042 ;;  arg             4   10[COMMON] unsigned long 
  4043 ;;  exp             1    9[COMMON] unsigned char 
  4044 ;; Return value:  Size  Location     Type
  4045 ;;                  4    0[COMMON] unsigned char 
  4046 ;; Registers used:
  4047 ;;		wreg, status,2, status,0
  4048 ;; Tracked objects:
  4049 ;;		On entry : 0/0
  4050 ;;		On exit  : 0/0
  4051 ;;		Unchanged: 0/0
  4052 ;; Data sizes:     COMMON   BANK0   BANK1   BANK2   BANK3   BANK4   BANK5   BANK6   BANK7   BANK8   BANK9  BANK10  BANK1
      +1  BANK12
  4053 ;;      Params:         4       0       0       0       0       0       0       0       0       0       0       0       
      +0       0
  4054 ;;      Locals:         6       0       0       0       0       0       0       0       0       0       0       0       
      +0       0
  4055 ;;      Temps:          4       0       0       0       0       0       0       0       0       0       0       0       
      +0       0
  4056 ;;      Totals:        14       0       0       0       0       0       0       0       0       0       0       0       
      +0       0
  4057 ;;Total ram usage:       14 bytes
  4058 ;; Hardware stack levels used:    1
  4059 ;; Hardware stack levels required when called:    1
  4060 ;; This function calls:
  4061 ;;		Nothing
  4062 ;; This function is called by:
  4063 ;;		_main
  4064 ;; This function uses a non-reentrant model
  4065 ;;
  4066                           
  4067                           
  4068                           ;psect for function ___xxtofl
  4069  035B                     ___xxtofl:	
  4070                           
  4071                           ;incstack = 0
  4072                           ; Regs used in ___xxtofl: [wreg+status,2+status,0]
  4073                           ;___xxtofl@sign stored from wreg
  4074  035B  00F8               	movwf	___xxtofl@sign
  4075  035C                     l1839:	
  4076  035C  0878               	movf	___xxtofl@sign,w
  4077  035D  1903               	btfsc	3,2
  4078  035E  2B60               	goto	u1581
  4079  035F  2B61               	goto	u1580
  4080  0360                     u1581:	
  4081  0360  2B75               	goto	l1845
  4082  0361                     u1580:	
  4083  0361                     l1841:	
  4084  0361  1FF3               	btfss	___xxtofl@val+3,7
  4085  0362  2B64               	goto	u1591
  4086  0363  2B65               	goto	u1590
  4087  0364                     u1591:	
  4088  0364  2B75               	goto	l1845
  4089  0365                     u1590:	
  4090  0365                     l1843:	
  4091  0365  0970               	comf	___xxtofl@val,w
  4092  0366  00FA               	movwf	___xxtofl@arg
  4093  0367  0971               	comf	___xxtofl@val+1,w
  4094  0368  00FB               	movwf	___xxtofl@arg+1
  4095  0369  0972               	comf	___xxtofl@val+2,w
  4096  036A  00FC               	movwf	___xxtofl@arg+2
  4097  036B  0973               	comf	___xxtofl@val+3,w
  4098  036C  00FD               	movwf	___xxtofl@arg+3
  4099  036D  0AFA               	incf	___xxtofl@arg,f
  4100  036E  1903               	skipnz
  4101  036F  0AFB               	incf	___xxtofl@arg+1,f
  4102  0370  1903               	skipnz
  4103  0371  0AFC               	incf	___xxtofl@arg+2,f
  4104  0372  1903               	skipnz
  4105  0373  0AFD               	incf	___xxtofl@arg+3,f
  4106  0374  2B7D               	goto	l780
  4107  0375                     l1845:	
  4108  0375  0873               	movf	___xxtofl@val+3,w
  4109  0376  00FD               	movwf	___xxtofl@arg+3
  4110  0377  0872               	movf	___xxtofl@val+2,w
  4111  0378  00FC               	movwf	___xxtofl@arg+2
  4112  0379  0871               	movf	___xxtofl@val+1,w
  4113  037A  00FB               	movwf	___xxtofl@arg+1
  4114  037B  0870               	movf	___xxtofl@val,w
  4115  037C  00FA               	movwf	___xxtofl@arg
  4116  037D                     l780:	
  4117  037D  0873               	movf	___xxtofl@val+3,w
  4118  037E  0472               	iorwf	___xxtofl@val+2,w
  4119  037F  0471               	iorwf	___xxtofl@val+1,w
  4120  0380  0470               	iorwf	___xxtofl@val,w
  4121  0381  1D03               	skipz
  4122  0382  2B84               	goto	u1601
  4123  0383  2B85               	goto	u1600
  4124  0384                     u1601:	
  4125  0384  2B8E               	goto	l1851
  4126  0385                     u1600:	
  4127  0385                     l1847:	
  4128  0385  3000               	movlw	0
  4129  0386  00F3               	movwf	?___xxtofl+3
  4130  0387  3000               	movlw	0
  4131  0388  00F2               	movwf	?___xxtofl+2
  4132  0389  3000               	movlw	0
  4133  038A  00F1               	movwf	?___xxtofl+1
  4134  038B  3000               	movlw	0
  4135  038C  00F0               	movwf	?___xxtofl
  4136  038D  2C06               	goto	l782
  4137  038E                     l1851:	
  4138  038E  3096               	movlw	150
  4139  038F  00F4               	movwf	??___xxtofl
  4140  0390  0874               	movf	??___xxtofl,w
  4141  0391  00F9               	movwf	___xxtofl@exp
  4142  0392  2B9E               	goto	l1855
  4143  0393                     l1853:	
  4144  0393  3001               	movlw	1
  4145  0394  00F4               	movwf	??___xxtofl
  4146  0395  0874               	movf	??___xxtofl,w
  4147  0396  07F9               	addwf	___xxtofl@exp,f
  4148  0397  3001               	movlw	1
  4149  0398                     u1615:	
  4150  0398  36FD               	lsrf	___xxtofl@arg+3,f
  4151  0399  0CFC               	rrf	___xxtofl@arg+2,f
  4152  039A  0CFB               	rrf	___xxtofl@arg+1,f
  4153  039B  0CFA               	rrf	___xxtofl@arg,f
  4154  039C  0B89               	decfsz	9,f
  4155  039D  2B98               	goto	u1615
  4156  039E                     l1855:	
  4157  039E  30FE               	movlw	254
  4158  039F  057D               	andwf	___xxtofl@arg+3,w
  4159  03A0  1D03               	btfss	3,2
  4160  03A1  2BA3               	goto	u1621
  4161  03A2  2BA4               	goto	u1620
  4162  03A3                     u1621:	
  4163  03A3  2B93               	goto	l1853
  4164  03A4                     u1620:	
  4165  03A4  2BB8               	goto	l786
  4166  03A5                     l1857:	
  4167  03A5  3001               	movlw	1
  4168  03A6  00F4               	movwf	??___xxtofl
  4169  03A7  0874               	movf	??___xxtofl,w
  4170  03A8  07F9               	addwf	___xxtofl@exp,f
  4171  03A9                     l1859:	
  4172  03A9  3001               	movlw	1
  4173  03AA  07FA               	addwf	___xxtofl@arg,f
  4174  03AB  3000               	movlw	0
  4175  03AC  3DFB               	addwfc	___xxtofl@arg+1,f
  4176  03AD  3000               	movlw	0
  4177  03AE  3DFC               	addwfc	___xxtofl@arg+2,f
  4178  03AF  3000               	movlw	0
  4179  03B0  3DFD               	addwfc	___xxtofl@arg+3,f
  4180  03B1                     l1861:	
  4181  03B1  3001               	movlw	1
  4182  03B2                     u1635:	
  4183  03B2  36FD               	lsrf	___xxtofl@arg+3,f
  4184  03B3  0CFC               	rrf	___xxtofl@arg+2,f
  4185  03B4  0CFB               	rrf	___xxtofl@arg+1,f
  4186  03B5  0CFA               	rrf	___xxtofl@arg,f
  4187  03B6  0B89               	decfsz	9,f
  4188  03B7  2BB2               	goto	u1635
  4189  03B8                     l786:	
  4190  03B8  30FF               	movlw	255
  4191  03B9  057D               	andwf	___xxtofl@arg+3,w
  4192  03BA  1D03               	btfss	3,2
  4193  03BB  2BBD               	goto	u1641
  4194  03BC  2BBE               	goto	u1640
  4195  03BD                     u1641:	
  4196  03BD  2BA5               	goto	l1857
  4197  03BE                     u1640:	
  4198  03BE  2BC8               	goto	l1865
  4199  03BF                     l1863:	
  4200  03BF  3001               	movlw	1
  4201  03C0  02F9               	subwf	___xxtofl@exp,f
  4202  03C1  3001               	movlw	1
  4203  03C2                     u1655:	
  4204  03C2  35FA               	lslf	___xxtofl@arg,f
  4205  03C3  0DFB               	rlf	___xxtofl@arg+1,f
  4206  03C4  0DFC               	rlf	___xxtofl@arg+2,f
  4207  03C5  0DFD               	rlf	___xxtofl@arg+3,f
  4208  03C6  0B89               	decfsz	9,f
  4209  03C7  2BC2               	goto	u1655
  4210  03C8                     l1865:	
  4211  03C8  1BFC               	btfsc	___xxtofl@arg+2,7
  4212  03C9  2BCB               	goto	u1661
  4213  03CA  2BCC               	goto	u1660
  4214  03CB                     u1661:	
  4215  03CB  2BD2               	goto	l793
  4216  03CC                     u1660:	
  4217  03CC                     l1867:	
  4218  03CC  3002               	movlw	2
  4219  03CD  0279               	subwf	___xxtofl@exp,w
  4220  03CE  1803               	skipnc
  4221  03CF  2BD1               	goto	u1671
  4222  03D0  2BD2               	goto	u1670
  4223  03D1                     u1671:	
  4224  03D1  2BBF               	goto	l1863
  4225  03D2                     u1670:	
  4226  03D2                     l793:	
  4227  03D2  1879               	btfsc	___xxtofl@exp,0
  4228  03D3  2BD5               	goto	u1681
  4229  03D4  2BD6               	goto	u1680
  4230  03D5                     u1681:	
  4231  03D5  2BDE               	goto	l794
  4232  03D6                     u1680:	
  4233  03D6                     l1869:	
  4234  03D6  30FF               	movlw	255
  4235  03D7  05FA               	andwf	___xxtofl@arg,f
  4236  03D8  30FF               	movlw	255
  4237  03D9  05FB               	andwf	___xxtofl@arg+1,f
  4238  03DA  307F               	movlw	127
  4239  03DB  05FC               	andwf	___xxtofl@arg+2,f
  4240  03DC  30FF               	movlw	255
  4241  03DD  05FD               	andwf	___xxtofl@arg+3,f
  4242  03DE                     l794:	
  4243  03DE  1003               	clrc
  4244  03DF  0CF9               	rrf	___xxtofl@exp,f
  4245  03E0                     l1871:	
  4246  03E0  0879               	movf	___xxtofl@exp,w
  4247  03E1  00F4               	movwf	??___xxtofl
  4248  03E2  01F5               	clrf	??___xxtofl+1
  4249  03E3  01F6               	clrf	??___xxtofl+2
  4250  03E4  01F7               	clrf	??___xxtofl+3
  4251  03E5  3018               	movlw	24
  4252  03E6                     u1695:	
  4253  03E6  35F4               	lslf	??___xxtofl,f
  4254  03E7  0DF5               	rlf	??___xxtofl+1,f
  4255  03E8  0DF6               	rlf	??___xxtofl+2,f
  4256  03E9  0DF7               	rlf	??___xxtofl+3,f
  4257  03EA                     u1690:	
  4258  03EA  0B89               	decfsz	9,f
  4259  03EB  2BE6               	goto	u1695
  4260  03EC  0874               	movf	??___xxtofl,w
  4261  03ED  04FA               	iorwf	___xxtofl@arg,f
  4262  03EE  0875               	movf	??___xxtofl+1,w
  4263  03EF  04FB               	iorwf	___xxtofl@arg+1,f
  4264  03F0  0876               	movf	??___xxtofl+2,w
  4265  03F1  04FC               	iorwf	___xxtofl@arg+2,f
  4266  03F2  0877               	movf	??___xxtofl+3,w
  4267  03F3  04FD               	iorwf	___xxtofl@arg+3,f
  4268  03F4                     l1873:	
  4269  03F4  0878               	movf	___xxtofl@sign,w
  4270  03F5  1903               	btfsc	3,2
  4271  03F6  2BF8               	goto	u1701
  4272  03F7  2BF9               	goto	u1700
  4273  03F8                     u1701:	
  4274  03F8  2BFE               	goto	l1879
  4275  03F9                     u1700:	
  4276  03F9                     l1875:	
  4277  03F9  1FF3               	btfss	___xxtofl@val+3,7
  4278  03FA  2BFC               	goto	u1711
  4279  03FB  2BFD               	goto	u1710
  4280  03FC                     u1711:	
  4281  03FC  2BFE               	goto	l1879
  4282  03FD                     u1710:	
  4283  03FD                     l1877:	
  4284  03FD  17FD               	bsf	___xxtofl@arg+3,7
  4285  03FE                     l1879:	
  4286  03FE  087D               	movf	___xxtofl@arg+3,w
  4287  03FF  00F3               	movwf	?___xxtofl+3
  4288  0400  087C               	movf	___xxtofl@arg+2,w
  4289  0401  00F2               	movwf	?___xxtofl+2
  4290  0402  087B               	movf	___xxtofl@arg+1,w
  4291  0403  00F1               	movwf	?___xxtofl+1
  4292  0404  087A               	movf	___xxtofl@arg,w
  4293  0405  00F0               	movwf	?___xxtofl
  4294  0406                     l782:	
  4295  0406  0008               	return
  4296  0407                     __end_of___xxtofl:	
  4297                           
  4298                           	psect	text13
  4299  0407                     __ptext13:	
  4300 ;; *************** function ___fltol *****************
  4301 ;; Defined at:
  4302 ;;		line 43 in file "C:\Program Files (x86)\Microchip\xc8\v2.10\pic\sources\c99\common\fltol.c"
  4303 ;; Parameters:    Size  Location     Type
  4304 ;;  f1              4   26[BANK0 ] unsigned char 
  4305 ;; Auto vars:     Size  Location     Type
  4306 ;;  exp1            1   36[BANK0 ] unsigned char 
  4307 ;;  sign1           1   35[BANK0 ] unsigned char 
  4308 ;; Return value:  Size  Location     Type
  4309 ;;                  4   26[BANK0 ] long 
  4310 ;; Registers used:
  4311 ;;		wreg, status,2, status,0
  4312 ;; Tracked objects:
  4313 ;;		On entry : 0/0
  4314 ;;		On exit  : 0/0
  4315 ;;		Unchanged: 0/0
  4316 ;; Data sizes:     COMMON   BANK0   BANK1   BANK2   BANK3   BANK4   BANK5   BANK6   BANK7   BANK8   BANK9  BANK10  BANK1
      +1  BANK12
  4317 ;;      Params:         0       4       0       0       0       0       0       0       0       0       0       0       
      +0       0
  4318 ;;      Locals:         0       2       0       0       0       0       0       0       0       0       0       0       
      +0       0
  4319 ;;      Temps:          0       5       0       0       0       0       0       0       0       0       0       0       
      +0       0
  4320 ;;      Totals:         0      11       0       0       0       0       0       0       0       0       0       0       
      +0       0
  4321 ;;Total ram usage:       11 bytes
  4322 ;; Hardware stack levels used:    1
  4323 ;; Hardware stack levels required when called:    1
  4324 ;; This function calls:
  4325 ;;		Nothing
  4326 ;; This function is called by:
  4327 ;;		_main
  4328 ;; This function uses a non-reentrant model
  4329 ;;
  4330                           
  4331                           
  4332                           ;psect for function ___fltol
  4333  0407                     ___fltol:	
  4334  0407                     l1663:	
  4335                           ;incstack = 0
  4336                           ; Regs used in ___fltol: [wreg+status,2+status,0]
  4337                           
  4338  0407  1003               	clrc
  4339  0408  0020               	movlb	0	; select bank0
  4340  0409  0D3C               	rlf	___fltol@f1+2,w
  4341  040A  0D3D               	rlf	___fltol@f1+3,w
  4342  040B  00BE               	movwf	??___fltol
  4343  040C  083E               	movf	??___fltol,w
  4344  040D  00C4               	movwf	___fltol@exp1
  4345  040E  0844               	movf	___fltol@exp1,w
  4346  040F  1D03               	btfss	3,2
  4347  0410  2C12               	goto	u1221
  4348  0411  2C13               	goto	u1220
  4349  0412                     u1221:	
  4350  0412  2C1C               	goto	l1669
  4351  0413                     u1220:	
  4352  0413                     l1665:	
  4353  0413  3000               	movlw	0
  4354  0414  00BD               	movwf	?___fltol+3
  4355  0415  3000               	movlw	0
  4356  0416  00BC               	movwf	?___fltol+2
  4357  0417  3000               	movlw	0
  4358  0418  00BB               	movwf	?___fltol+1
  4359  0419  3000               	movlw	0
  4360  041A  00BA               	movwf	?___fltol
  4361  041B  2C7B               	goto	l539
  4362  041C                     l1669:	
  4363  041C  083A               	movf	___fltol@f1,w
  4364  041D  00BE               	movwf	??___fltol
  4365  041E  083B               	movf	___fltol@f1+1,w
  4366  041F  00BF               	movwf	??___fltol+1
  4367  0420  083C               	movf	___fltol@f1+2,w
  4368  0421  00C0               	movwf	??___fltol+2
  4369  0422  083D               	movf	___fltol@f1+3,w
  4370  0423  00C1               	movwf	??___fltol+3
  4371  0424  301F               	movlw	31
  4372  0425                     u1235:	
  4373  0425  36C1               	lsrf	??___fltol+3,f
  4374  0426  0CC0               	rrf	??___fltol+2,f
  4375  0427  0CBF               	rrf	??___fltol+1,f
  4376  0428  0CBE               	rrf	??___fltol,f
  4377  0429                     u1230:	
  4378  0429  0B89               	decfsz	9,f
  4379  042A  2C25               	goto	u1235
  4380  042B  083E               	movf	??___fltol,w
  4381  042C  00C2               	movwf	??___fltol+4
  4382  042D  0842               	movf	??___fltol+4,w
  4383  042E  00C3               	movwf	___fltol@sign1
  4384  042F                     l1671:	
  4385  042F  17BC               	bsf	___fltol@f1+2,7
  4386  0430                     l1673:	
  4387  0430  30FF               	movlw	255
  4388  0431  05BA               	andwf	___fltol@f1,f
  4389  0432  30FF               	movlw	255
  4390  0433  05BB               	andwf	___fltol@f1+1,f
  4391  0434  30FF               	movlw	255
  4392  0435  05BC               	andwf	___fltol@f1+2,f
  4393  0436  3000               	movlw	0
  4394  0437  05BD               	andwf	___fltol@f1+3,f
  4395  0438                     l1675:	
  4396  0438  3096               	movlw	150
  4397  0439  02C4               	subwf	___fltol@exp1,f
  4398  043A                     l1677:	
  4399  043A  1FC4               	btfss	___fltol@exp1,7
  4400  043B  2C3D               	goto	u1241
  4401  043C  2C3E               	goto	u1240
  4402  043D                     u1241:	
  4403  043D  2C56               	goto	l1687
  4404  043E                     u1240:	
  4405  043E                     l1679:	
  4406  043E  0844               	movf	___fltol@exp1,w
  4407  043F  3A80               	xorlw	128
  4408  0440  3E97               	addlw	151
  4409  0441  1803               	skipnc
  4410  0442  2C44               	goto	u1251
  4411  0443  2C45               	goto	u1250
  4412  0444                     u1251:	
  4413  0444  2C46               	goto	l1685
  4414  0445                     u1250:	
  4415  0445  2C13               	goto	l1665
  4416  0446                     l1685:	
  4417  0446  3001               	movlw	1
  4418  0447                     u1265:	
  4419  0447  36BD               	lsrf	___fltol@f1+3,f
  4420  0448  0CBC               	rrf	___fltol@f1+2,f
  4421  0449  0CBB               	rrf	___fltol@f1+1,f
  4422  044A  0CBA               	rrf	___fltol@f1,f
  4423  044B  0B89               	decfsz	9,f
  4424  044C  2C47               	goto	u1265
  4425  044D  3001               	movlw	1
  4426  044E  00BE               	movwf	??___fltol
  4427  044F  083E               	movf	??___fltol,w
  4428  0450  07C4               	addwf	___fltol@exp1,f
  4429  0451  1D03               	btfss	3,2
  4430  0452  2C54               	goto	u1271
  4431  0453  2C55               	goto	u1270
  4432  0454                     u1271:	
  4433  0454  2C46               	goto	l1685
  4434  0455                     u1270:	
  4435  0455  2C6B               	goto	l1695
  4436  0456                     l1687:	
  4437  0456  3020               	movlw	32
  4438  0457  0244               	subwf	___fltol@exp1,w
  4439  0458  1C03               	skipc
  4440  0459  2C5B               	goto	u1281
  4441  045A  2C5C               	goto	u1280
  4442  045B                     u1281:	
  4443  045B  2C66               	goto	l546
  4444  045C                     u1280:	
  4445  045C  2C13               	goto	l1665
  4446  045D                     l1693:	
  4447  045D  3001               	movlw	1
  4448  045E                     u1295:	
  4449  045E  35BA               	lslf	___fltol@f1,f
  4450  045F  0DBB               	rlf	___fltol@f1+1,f
  4451  0460  0DBC               	rlf	___fltol@f1+2,f
  4452  0461  0DBD               	rlf	___fltol@f1+3,f
  4453  0462  0B89               	decfsz	9,f
  4454  0463  2C5E               	goto	u1295
  4455  0464  3001               	movlw	1
  4456  0465  02C4               	subwf	___fltol@exp1,f
  4457  0466                     l546:	
  4458  0466  0844               	movf	___fltol@exp1,w
  4459  0467  1D03               	btfss	3,2
  4460  0468  2C6A               	goto	u1301
  4461  0469  2C6B               	goto	u1300
  4462  046A                     u1301:	
  4463  046A  2C5D               	goto	l1693
  4464  046B                     u1300:	
  4465  046B                     l1695:	
  4466  046B  0843               	movf	___fltol@sign1,w
  4467  046C  1903               	btfsc	3,2
  4468  046D  2C6F               	goto	u1311
  4469  046E  2C70               	goto	u1310
  4470  046F                     u1311:	
  4471  046F  2C7B               	goto	l549
  4472  0470                     u1310:	
  4473  0470                     l1697:	
  4474  0470  09BA               	comf	___fltol@f1,f
  4475  0471  09BB               	comf	___fltol@f1+1,f
  4476  0472  09BC               	comf	___fltol@f1+2,f
  4477  0473  09BD               	comf	___fltol@f1+3,f
  4478  0474  0ABA               	incf	___fltol@f1,f
  4479  0475  1903               	skipnz
  4480  0476  0ABB               	incf	___fltol@f1+1,f
  4481  0477  1903               	skipnz
  4482  0478  0ABC               	incf	___fltol@f1+2,f
  4483  0479  1903               	skipnz
  4484  047A  0ABD               	incf	___fltol@f1+3,f
  4485  047B                     l549:	
  4486  047B                     l539:	
  4487  047B  0008               	return
  4488  047C                     __end_of___fltol:	
  4489                           
  4490                           	psect	text14
  4491  003D                     __ptext14:	
  4492 ;; *************** function ___flmul *****************
  4493 ;; Defined at:
  4494 ;;		line 8 in file "C:\Program Files (x86)\Microchip\xc8\v2.10\pic\sources\c99\common\sprcmul.c"
  4495 ;; Parameters:    Size  Location     Type
  4496 ;;  b               4    0[BANK0 ] long 
  4497 ;;  a               4    4[BANK0 ] long 
  4498 ;; Auto vars:     Size  Location     Type
  4499 ;;  prod            4   20[BANK0 ] struct .
  4500 ;;  grs             4   14[BANK0 ] unsigned long 
  4501 ;;  temp            2   24[BANK0 ] struct .
  4502 ;;  bexp            1   19[BANK0 ] unsigned char 
  4503 ;;  aexp            1   18[BANK0 ] unsigned char 
  4504 ;;  sign            1   13[BANK0 ] unsigned char 
  4505 ;; Return value:  Size  Location     Type
  4506 ;;                  4    0[BANK0 ] unsigned char 
  4507 ;; Registers used:
  4508 ;;		wreg, status,2, status,0, pclath, cstack
  4509 ;; Tracked objects:
  4510 ;;		On entry : 0/0
  4511 ;;		On exit  : 0/0
  4512 ;;		Unchanged: 0/0
  4513 ;; Data sizes:     COMMON   BANK0   BANK1   BANK2   BANK3   BANK4   BANK5   BANK6   BANK7   BANK8   BANK9  BANK10  BANK1
      +1  BANK12
  4514 ;;      Params:         0       8       0       0       0       0       0       0       0       0       0       0       
      +0       0
  4515 ;;      Locals:         0      13       0       0       0       0       0       0       0       0       0       0       
      +0       0
  4516 ;;      Temps:          0       5       0       0       0       0       0       0       0       0       0       0       
      +0       0
  4517 ;;      Totals:         0      26       0       0       0       0       0       0       0       0       0       0       
      +0       0
  4518 ;;Total ram usage:       26 bytes
  4519 ;; Hardware stack levels used:    1
  4520 ;; Hardware stack levels required when called:    2
  4521 ;; This function calls:
  4522 ;;		__Umul8_16
  4523 ;; This function is called by:
  4524 ;;		_main
  4525 ;; This function uses a non-reentrant model
  4526 ;;
  4527                           
  4528                           
  4529                           ;psect for function ___flmul
  4530  003D                     ___flmul:	
  4531  003D                     l1699:	
  4532                           ;incstack = 0
  4533                           ; Regs used in ___flmul: [wreg+status,2+status,0+pclath+cstack]
  4534                           
  4535  003D  0020               	movlb	0	; select bank0
  4536  003E  0823               	movf	___flmul@b+3,w
  4537  003F  3980               	andlw	128
  4538  0040  00A8               	movwf	??___flmul
  4539  0041  0828               	movf	??___flmul,w
  4540  0042  00AD               	movwf	___flmul@sign
  4541  0043                     l1701:	
  4542  0043  3523               	lslf	___flmul@b+3,w
  4543  0044  00A8               	movwf	??___flmul
  4544  0045  0828               	movf	??___flmul,w
  4545  0046  00B3               	movwf	___flmul@bexp
  4546  0047                     l1703:	
  4547  0047  1FA2               	btfss	___flmul@b+2,7
  4548  0048  284A               	goto	u1321
  4549  0049  284B               	goto	u1320
  4550  004A                     u1321:	
  4551  004A  284C               	goto	l1707
  4552  004B                     u1320:	
  4553  004B                     l1705:	
  4554  004B  1433               	bsf	___flmul@bexp,0
  4555  004C                     l1707:	
  4556  004C  0833               	movf	___flmul@bexp,w
  4557  004D  1903               	btfsc	3,2
  4558  004E  2850               	goto	u1331
  4559  004F  2851               	goto	u1330
  4560  0050                     u1331:	
  4561  0050  2860               	goto	l1715
  4562  0051                     u1330:	
  4563  0051                     l1709:	
  4564  0051  0A33               	incf	___flmul@bexp,w
  4565  0052  1D03               	btfss	3,2
  4566  0053  2855               	goto	u1341
  4567  0054  2856               	goto	u1340
  4568  0055                     u1341:	
  4569  0055  285E               	goto	l1713
  4570  0056                     u1340:	
  4571  0056                     l1711:	
  4572  0056  3000               	movlw	0
  4573  0057  00A3               	movwf	___flmul@b+3
  4574  0058  3000               	movlw	0
  4575  0059  00A2               	movwf	___flmul@b+2
  4576  005A  3000               	movlw	0
  4577  005B  00A1               	movwf	___flmul@b+1
  4578  005C  3000               	movlw	0
  4579  005D  00A0               	movwf	___flmul@b
  4580  005E                     l1713:	
  4581  005E  17A2               	bsf	___flmul@b+2,7
  4582  005F  2868               	goto	l1717
  4583  0060                     l1715:	
  4584  0060  3000               	movlw	0
  4585  0061  00A3               	movwf	___flmul@b+3
  4586  0062  3000               	movlw	0
  4587  0063  00A2               	movwf	___flmul@b+2
  4588  0064  3000               	movlw	0
  4589  0065  00A1               	movwf	___flmul@b+1
  4590  0066  3000               	movlw	0
  4591  0067  00A0               	movwf	___flmul@b
  4592  0068                     l1717:	
  4593  0068  0827               	movf	___flmul@a+3,w
  4594  0069  3980               	andlw	128
  4595  006A  00A8               	movwf	??___flmul
  4596  006B  0828               	movf	??___flmul,w
  4597  006C  06AD               	xorwf	___flmul@sign,f
  4598  006D                     l1719:	
  4599  006D  3527               	lslf	___flmul@a+3,w
  4600  006E  00A8               	movwf	??___flmul
  4601  006F  0828               	movf	??___flmul,w
  4602  0070  00B2               	movwf	___flmul@aexp
  4603  0071                     l1721:	
  4604  0071  1FA6               	btfss	___flmul@a+2,7
  4605  0072  2874               	goto	u1351
  4606  0073  2875               	goto	u1350
  4607  0074                     u1351:	
  4608  0074  2876               	goto	l1725
  4609  0075                     u1350:	
  4610  0075                     l1723:	
  4611  0075  1432               	bsf	___flmul@aexp,0
  4612  0076                     l1725:	
  4613  0076  0832               	movf	___flmul@aexp,w
  4614  0077  1903               	btfsc	3,2
  4615  0078  287A               	goto	u1361
  4616  0079  287B               	goto	u1360
  4617  007A                     u1361:	
  4618  007A  288A               	goto	l1733
  4619  007B                     u1360:	
  4620  007B                     l1727:	
  4621  007B  0A32               	incf	___flmul@aexp,w
  4622  007C  1D03               	btfss	3,2
  4623  007D  287F               	goto	u1371
  4624  007E  2880               	goto	u1370
  4625  007F                     u1371:	
  4626  007F  2888               	goto	l1731
  4627  0080                     u1370:	
  4628  0080                     l1729:	
  4629  0080  3000               	movlw	0
  4630  0081  00A7               	movwf	___flmul@a+3
  4631  0082  3000               	movlw	0
  4632  0083  00A6               	movwf	___flmul@a+2
  4633  0084  3000               	movlw	0
  4634  0085  00A5               	movwf	___flmul@a+1
  4635  0086  3000               	movlw	0
  4636  0087  00A4               	movwf	___flmul@a
  4637  0088                     l1731:	
  4638  0088  17A6               	bsf	___flmul@a+2,7
  4639  0089  2892               	goto	l1735
  4640  008A                     l1733:	
  4641  008A  3000               	movlw	0
  4642  008B  00A7               	movwf	___flmul@a+3
  4643  008C  3000               	movlw	0
  4644  008D  00A6               	movwf	___flmul@a+2
  4645  008E  3000               	movlw	0
  4646  008F  00A5               	movwf	___flmul@a+1
  4647  0090  3000               	movlw	0
  4648  0091  00A4               	movwf	___flmul@a
  4649  0092                     l1735:	
  4650  0092  0832               	movf	___flmul@aexp,w
  4651  0093  1903               	btfsc	3,2
  4652  0094  2896               	goto	u1381
  4653  0095  2897               	goto	u1380
  4654  0096                     u1381:	
  4655  0096  289C               	goto	l1739
  4656  0097                     u1380:	
  4657  0097                     l1737:	
  4658  0097  0833               	movf	___flmul@bexp,w
  4659  0098  1D03               	btfss	3,2
  4660  0099  289B               	goto	u1391
  4661  009A  289C               	goto	u1390
  4662  009B                     u1391:	
  4663  009B  28A5               	goto	l1743
  4664  009C                     u1390:	
  4665  009C                     l1739:	
  4666  009C  3000               	movlw	0
  4667  009D  00A3               	movwf	?___flmul+3
  4668  009E  3000               	movlw	0
  4669  009F  00A2               	movwf	?___flmul+2
  4670  00A0  3000               	movlw	0
  4671  00A1  00A1               	movwf	?___flmul+1
  4672  00A2  3000               	movlw	0
  4673  00A3  00A0               	movwf	?___flmul
  4674  00A4  2A93               	goto	l742
  4675  00A5                     l1743:	
  4676  00A5  0820               	movf	___flmul@b,w
  4677  00A6  00A8               	movwf	??___flmul
  4678  00A7  0828               	movf	??___flmul,w
  4679  00A8  00F0               	movwf	__Umul8_16@multiplicand
  4680  00A9  0826               	movf	___flmul@a+2,w
  4681  00AA  3186  2628  3180   	fcall	__Umul8_16
  4682  00AD  0871               	movf	?__Umul8_16+1,w
  4683  00AE  0020               	movlb	0	; select bank0
  4684  00AF  00B9               	movwf	___flmul@temp+1
  4685  00B0  0870               	movf	?__Umul8_16,w
  4686  00B1  00B8               	movwf	___flmul@temp
  4687  00B2                     l1745:	
  4688  00B2  0838               	movf	___flmul@temp,w
  4689  00B3  00A8               	movwf	??___flmul
  4690  00B4  01A9               	clrf	??___flmul+1
  4691  00B5  01AA               	clrf	??___flmul+2
  4692  00B6  01AB               	clrf	??___flmul+3
  4693  00B7  082B               	movf	??___flmul+3,w
  4694  00B8  00B1               	movwf	___flmul@grs+3
  4695  00B9  082A               	movf	??___flmul+2,w
  4696  00BA  00B0               	movwf	___flmul@grs+2
  4697  00BB  0829               	movf	??___flmul+1,w
  4698  00BC  00AF               	movwf	___flmul@grs+1
  4699  00BD  0828               	movf	??___flmul,w
  4700  00BE  00AE               	movwf	___flmul@grs
  4701  00BF                     l1747:	
  4702  00BF  0839               	movf	___flmul@temp+1,w
  4703  00C0  00A8               	movwf	??___flmul
  4704  00C1  01A9               	clrf	??___flmul+1
  4705  00C2  01AA               	clrf	??___flmul+2
  4706  00C3  01AB               	clrf	??___flmul+3
  4707  00C4  082B               	movf	??___flmul+3,w
  4708  00C5  00B7               	movwf	___flmul@prod+3
  4709  00C6  082A               	movf	??___flmul+2,w
  4710  00C7  00B6               	movwf	___flmul@prod+2
  4711  00C8  0829               	movf	??___flmul+1,w
  4712  00C9  00B5               	movwf	___flmul@prod+1
  4713  00CA  0828               	movf	??___flmul,w
  4714  00CB  00B4               	movwf	___flmul@prod
  4715  00CC  0821               	movf	___flmul@b+1,w
  4716  00CD  00A8               	movwf	??___flmul
  4717  00CE  0828               	movf	??___flmul,w
  4718  00CF  00F0               	movwf	__Umul8_16@multiplicand
  4719  00D0  0825               	movf	___flmul@a+1,w
  4720  00D1  3186  2628  3180   	fcall	__Umul8_16
  4721  00D4  0871               	movf	?__Umul8_16+1,w
  4722  00D5  0020               	movlb	0	; select bank0
  4723  00D6  00B9               	movwf	___flmul@temp+1
  4724  00D7  0870               	movf	?__Umul8_16,w
  4725  00D8  00B8               	movwf	___flmul@temp
  4726  00D9                     l1749:	
  4727  00D9  0838               	movf	___flmul@temp,w
  4728  00DA  00A8               	movwf	??___flmul
  4729  00DB  01A9               	clrf	??___flmul+1
  4730  00DC  01AA               	clrf	??___flmul+2
  4731  00DD  01AB               	clrf	??___flmul+3
  4732  00DE  0828               	movf	??___flmul,w
  4733  00DF  07AE               	addwf	___flmul@grs,f
  4734  00E0  0829               	movf	??___flmul+1,w
  4735  00E1  3DAF               	addwfc	___flmul@grs+1,f
  4736  00E2  082A               	movf	??___flmul+2,w
  4737  00E3  3DB0               	addwfc	___flmul@grs+2,f
  4738  00E4  082B               	movf	??___flmul+3,w
  4739  00E5  3DB1               	addwfc	___flmul@grs+3,f
  4740  00E6                     l1751:	
  4741  00E6  0839               	movf	___flmul@temp+1,w
  4742  00E7  00A8               	movwf	??___flmul
  4743  00E8  01A9               	clrf	??___flmul+1
  4744  00E9  01AA               	clrf	??___flmul+2
  4745  00EA  01AB               	clrf	??___flmul+3
  4746  00EB  0828               	movf	??___flmul,w
  4747  00EC  07B4               	addwf	___flmul@prod,f
  4748  00ED  0829               	movf	??___flmul+1,w
  4749  00EE  3DB5               	addwfc	___flmul@prod+1,f
  4750  00EF  082A               	movf	??___flmul+2,w
  4751  00F0  3DB6               	addwfc	___flmul@prod+2,f
  4752  00F1  082B               	movf	??___flmul+3,w
  4753  00F2  3DB7               	addwfc	___flmul@prod+3,f
  4754  00F3  0822               	movf	___flmul@b+2,w
  4755  00F4  00A8               	movwf	??___flmul
  4756  00F5  0828               	movf	??___flmul,w
  4757  00F6  00F0               	movwf	__Umul8_16@multiplicand
  4758  00F7  0824               	movf	___flmul@a,w
  4759  00F8  3186  2628  3180   	fcall	__Umul8_16
  4760  00FB  0871               	movf	?__Umul8_16+1,w
  4761  00FC  0020               	movlb	0	; select bank0
  4762  00FD  00B9               	movwf	___flmul@temp+1
  4763  00FE  0870               	movf	?__Umul8_16,w
  4764  00FF  00B8               	movwf	___flmul@temp
  4765  0100                     l1753:	
  4766  0100  0838               	movf	___flmul@temp,w
  4767  0101  00A8               	movwf	??___flmul
  4768  0102  01A9               	clrf	??___flmul+1
  4769  0103  01AA               	clrf	??___flmul+2
  4770  0104  01AB               	clrf	??___flmul+3
  4771  0105  0828               	movf	??___flmul,w
  4772  0106  07AE               	addwf	___flmul@grs,f
  4773  0107  0829               	movf	??___flmul+1,w
  4774  0108  3DAF               	addwfc	___flmul@grs+1,f
  4775  0109  082A               	movf	??___flmul+2,w
  4776  010A  3DB0               	addwfc	___flmul@grs+2,f
  4777  010B  082B               	movf	??___flmul+3,w
  4778  010C  3DB1               	addwfc	___flmul@grs+3,f
  4779  010D                     l1755:	
  4780  010D  0839               	movf	___flmul@temp+1,w
  4781  010E  00A8               	movwf	??___flmul
  4782  010F  01A9               	clrf	??___flmul+1
  4783  0110  01AA               	clrf	??___flmul+2
  4784  0111  01AB               	clrf	??___flmul+3
  4785  0112  0828               	movf	??___flmul,w
  4786  0113  07B4               	addwf	___flmul@prod,f
  4787  0114  0829               	movf	??___flmul+1,w
  4788  0115  3DB5               	addwfc	___flmul@prod+1,f
  4789  0116  082A               	movf	??___flmul+2,w
  4790  0117  3DB6               	addwfc	___flmul@prod+2,f
  4791  0118  082B               	movf	??___flmul+3,w
  4792  0119  3DB7               	addwfc	___flmul@prod+3,f
  4793  011A                     l1757:	
  4794  011A  3008               	movlw	8
  4795  011B                     u1405:	
  4796  011B  35AE               	lslf	___flmul@grs,f
  4797  011C  0DAF               	rlf	___flmul@grs+1,f
  4798  011D  0DB0               	rlf	___flmul@grs+2,f
  4799  011E  0DB1               	rlf	___flmul@grs+3,f
  4800  011F  0B89               	decfsz	9,f
  4801  0120  291B               	goto	u1405
  4802  0121                     l1759:	
  4803  0121  0821               	movf	___flmul@b+1,w
  4804  0122  00A8               	movwf	??___flmul
  4805  0123  0828               	movf	??___flmul,w
  4806  0124  00F0               	movwf	__Umul8_16@multiplicand
  4807  0125  0824               	movf	___flmul@a,w
  4808  0126  3186  2628  3180   	fcall	__Umul8_16
  4809  0129  0871               	movf	?__Umul8_16+1,w
  4810  012A  0020               	movlb	0	; select bank0
  4811  012B  00B9               	movwf	___flmul@temp+1
  4812  012C  0870               	movf	?__Umul8_16,w
  4813  012D  00B8               	movwf	___flmul@temp
  4814  012E                     l1761:	
  4815  012E  0838               	movf	___flmul@temp,w
  4816  012F  07AE               	addwf	___flmul@grs,f
  4817  0130  0839               	movf	___flmul@temp+1,w
  4818  0131  3DAF               	addwfc	___flmul@grs+1,f
  4819  0132  3000               	movlw	0
  4820  0133  3DB0               	addwfc	___flmul@grs+2,f
  4821  0134  3DB1               	addwfc	___flmul@grs+3,f
  4822  0135                     l1763:	
  4823  0135  0820               	movf	___flmul@b,w
  4824  0136  00A8               	movwf	??___flmul
  4825  0137  0828               	movf	??___flmul,w
  4826  0138  00F0               	movwf	__Umul8_16@multiplicand
  4827  0139  0825               	movf	___flmul@a+1,w
  4828  013A  3186  2628  3180   	fcall	__Umul8_16
  4829  013D  0871               	movf	?__Umul8_16+1,w
  4830  013E  0020               	movlb	0	; select bank0
  4831  013F  00B9               	movwf	___flmul@temp+1
  4832  0140  0870               	movf	?__Umul8_16,w
  4833  0141  00B8               	movwf	___flmul@temp
  4834  0142                     l1765:	
  4835  0142  0838               	movf	___flmul@temp,w
  4836  0143  07AE               	addwf	___flmul@grs,f
  4837  0144  0839               	movf	___flmul@temp+1,w
  4838  0145  3DAF               	addwfc	___flmul@grs+1,f
  4839  0146  3000               	movlw	0
  4840  0147  3DB0               	addwfc	___flmul@grs+2,f
  4841  0148  3DB1               	addwfc	___flmul@grs+3,f
  4842  0149                     l1767:	
  4843  0149  3008               	movlw	8
  4844  014A                     u1415:	
  4845  014A  35AE               	lslf	___flmul@grs,f
  4846  014B  0DAF               	rlf	___flmul@grs+1,f
  4847  014C  0DB0               	rlf	___flmul@grs+2,f
  4848  014D  0DB1               	rlf	___flmul@grs+3,f
  4849  014E  0B89               	decfsz	9,f
  4850  014F  294A               	goto	u1415
  4851  0150  0820               	movf	___flmul@b,w
  4852  0151  00A8               	movwf	??___flmul
  4853  0152  0828               	movf	??___flmul,w
  4854  0153  00F0               	movwf	__Umul8_16@multiplicand
  4855  0154  0824               	movf	___flmul@a,w
  4856  0155  3186  2628  3180   	fcall	__Umul8_16
  4857  0158  0871               	movf	?__Umul8_16+1,w
  4858  0159  0020               	movlb	0	; select bank0
  4859  015A  00B9               	movwf	___flmul@temp+1
  4860  015B  0870               	movf	?__Umul8_16,w
  4861  015C  00B8               	movwf	___flmul@temp
  4862  015D                     l1769:	
  4863  015D  0838               	movf	___flmul@temp,w
  4864  015E  07AE               	addwf	___flmul@grs,f
  4865  015F  0839               	movf	___flmul@temp+1,w
  4866  0160  3DAF               	addwfc	___flmul@grs+1,f
  4867  0161  3000               	movlw	0
  4868  0162  3DB0               	addwfc	___flmul@grs+2,f
  4869  0163  3DB1               	addwfc	___flmul@grs+3,f
  4870  0164                     l1771:	
  4871  0164  0821               	movf	___flmul@b+1,w
  4872  0165  00A8               	movwf	??___flmul
  4873  0166  0828               	movf	??___flmul,w
  4874  0167  00F0               	movwf	__Umul8_16@multiplicand
  4875  0168  0826               	movf	___flmul@a+2,w
  4876  0169  3186  2628  3180   	fcall	__Umul8_16
  4877  016C  0871               	movf	?__Umul8_16+1,w
  4878  016D  0020               	movlb	0	; select bank0
  4879  016E  00B9               	movwf	___flmul@temp+1
  4880  016F  0870               	movf	?__Umul8_16,w
  4881  0170  00B8               	movwf	___flmul@temp
  4882  0171  0838               	movf	___flmul@temp,w
  4883  0172  07B4               	addwf	___flmul@prod,f
  4884  0173  0839               	movf	___flmul@temp+1,w
  4885  0174  3DB5               	addwfc	___flmul@prod+1,f
  4886  0175  3000               	movlw	0
  4887  0176  3DB6               	addwfc	___flmul@prod+2,f
  4888  0177  3DB7               	addwfc	___flmul@prod+3,f
  4889  0178                     l1773:	
  4890  0178  0822               	movf	___flmul@b+2,w
  4891  0179  00A8               	movwf	??___flmul
  4892  017A  0828               	movf	??___flmul,w
  4893  017B  00F0               	movwf	__Umul8_16@multiplicand
  4894  017C  0825               	movf	___flmul@a+1,w
  4895  017D  3186  2628  3180   	fcall	__Umul8_16
  4896  0180  0871               	movf	?__Umul8_16+1,w
  4897  0181  0020               	movlb	0	; select bank0
  4898  0182  00B9               	movwf	___flmul@temp+1
  4899  0183  0870               	movf	?__Umul8_16,w
  4900  0184  00B8               	movwf	___flmul@temp
  4901  0185                     l1775:	
  4902  0185  0838               	movf	___flmul@temp,w
  4903  0186  07B4               	addwf	___flmul@prod,f
  4904  0187  0839               	movf	___flmul@temp+1,w
  4905  0188  3DB5               	addwfc	___flmul@prod+1,f
  4906  0189  3000               	movlw	0
  4907  018A  3DB6               	addwfc	___flmul@prod+2,f
  4908  018B  3DB7               	addwfc	___flmul@prod+3,f
  4909  018C  0822               	movf	___flmul@b+2,w
  4910  018D  00A8               	movwf	??___flmul
  4911  018E  0828               	movf	??___flmul,w
  4912  018F  00F0               	movwf	__Umul8_16@multiplicand
  4913  0190  0826               	movf	___flmul@a+2,w
  4914  0191  3186  2628  3180   	fcall	__Umul8_16
  4915  0194  0871               	movf	?__Umul8_16+1,w
  4916  0195  0020               	movlb	0	; select bank0
  4917  0196  00B9               	movwf	___flmul@temp+1
  4918  0197  0870               	movf	?__Umul8_16,w
  4919  0198  00B8               	movwf	___flmul@temp
  4920  0199                     l1777:	
  4921  0199  0838               	movf	___flmul@temp,w
  4922  019A  00A8               	movwf	??___flmul
  4923  019B  0839               	movf	___flmul@temp+1,w
  4924  019C  00A9               	movwf	??___flmul+1
  4925  019D  01AA               	clrf	??___flmul+2
  4926  019E  01AB               	clrf	??___flmul+3
  4927  019F  3008               	movlw	8
  4928  01A0                     u1425:	
  4929  01A0  35A8               	lslf	??___flmul,f
  4930  01A1  0DA9               	rlf	??___flmul+1,f
  4931  01A2  0DAA               	rlf	??___flmul+2,f
  4932  01A3  0DAB               	rlf	??___flmul+3,f
  4933  01A4                     u1420:	
  4934  01A4  0B89               	decfsz	9,f
  4935  01A5  29A0               	goto	u1425
  4936  01A6  0828               	movf	??___flmul,w
  4937  01A7  07B4               	addwf	___flmul@prod,f
  4938  01A8  0829               	movf	??___flmul+1,w
  4939  01A9  3DB5               	addwfc	___flmul@prod+1,f
  4940  01AA  082A               	movf	??___flmul+2,w
  4941  01AB  3DB6               	addwfc	___flmul@prod+2,f
  4942  01AC  082B               	movf	??___flmul+3,w
  4943  01AD  3DB7               	addwfc	___flmul@prod+3,f
  4944  01AE                     l1779:	
  4945  01AE  082E               	movf	___flmul@grs,w
  4946  01AF  00A8               	movwf	??___flmul
  4947  01B0  082F               	movf	___flmul@grs+1,w
  4948  01B1  00A9               	movwf	??___flmul+1
  4949  01B2  0830               	movf	___flmul@grs+2,w
  4950  01B3  00AA               	movwf	??___flmul+2
  4951  01B4  0831               	movf	___flmul@grs+3,w
  4952  01B5  00AB               	movwf	??___flmul+3
  4953  01B6  3018               	movlw	24
  4954  01B7                     u1435:	
  4955  01B7  36AB               	lsrf	??___flmul+3,f
  4956  01B8  0CAA               	rrf	??___flmul+2,f
  4957  01B9  0CA9               	rrf	??___flmul+1,f
  4958  01BA  0CA8               	rrf	??___flmul,f
  4959  01BB                     u1430:	
  4960  01BB  0B89               	decfsz	9,f
  4961  01BC  29B7               	goto	u1435
  4962  01BD  0828               	movf	??___flmul,w
  4963  01BE  07B4               	addwf	___flmul@prod,f
  4964  01BF  0829               	movf	??___flmul+1,w
  4965  01C0  3DB5               	addwfc	___flmul@prod+1,f
  4966  01C1  082A               	movf	??___flmul+2,w
  4967  01C2  3DB6               	addwfc	___flmul@prod+2,f
  4968  01C3  082B               	movf	??___flmul+3,w
  4969  01C4  3DB7               	addwfc	___flmul@prod+3,f
  4970  01C5                     l1781:	
  4971  01C5  3008               	movlw	8
  4972  01C6                     u1445:	
  4973  01C6  35AE               	lslf	___flmul@grs,f
  4974  01C7  0DAF               	rlf	___flmul@grs+1,f
  4975  01C8  0DB0               	rlf	___flmul@grs+2,f
  4976  01C9  0DB1               	rlf	___flmul@grs+3,f
  4977  01CA  0B89               	decfsz	9,f
  4978  01CB  29C6               	goto	u1445
  4979  01CC                     l1783:	
  4980  01CC  0833               	movf	___flmul@bexp,w
  4981  01CD  0732               	addwf	___flmul@aexp,w
  4982  01CE  00A8               	movwf	??___flmul
  4983  01CF  01A9               	clrf	??___flmul+1
  4984  01D0  0DA9               	rlf	??___flmul+1,f
  4985  01D1  0828               	movf	??___flmul,w
  4986  01D2  3E82               	addlw	130
  4987  01D3  00B8               	movwf	___flmul@temp
  4988  01D4  30FF               	movlw	255
  4989  01D5  3D29               	addwfc	??___flmul+1,w
  4990  01D6  00B9               	movwf	___flmul@temp+1
  4991  01D7  29EF               	goto	l1795
  4992  01D8                     l1785:	
  4993  01D8  3001               	movlw	1
  4994  01D9                     u1455:	
  4995  01D9  35B4               	lslf	___flmul@prod,f
  4996  01DA  0DB5               	rlf	___flmul@prod+1,f
  4997  01DB  0DB6               	rlf	___flmul@prod+2,f
  4998  01DC  0DB7               	rlf	___flmul@prod+3,f
  4999  01DD  0B89               	decfsz	9,f
  5000  01DE  29D9               	goto	u1455
  5001  01DF                     l1787:	
  5002  01DF  1FB1               	btfss	___flmul@grs+3,7
  5003  01E0  29E2               	goto	u1461
  5004  01E1  29E3               	goto	u1460
  5005  01E2                     u1461:	
  5006  01E2  29E4               	goto	l1791
  5007  01E3                     u1460:	
  5008  01E3                     l1789:	
  5009  01E3  1434               	bsf	___flmul@prod,0
  5010  01E4                     l1791:	
  5011  01E4  3001               	movlw	1
  5012  01E5                     u1475:	
  5013  01E5  35AE               	lslf	___flmul@grs,f
  5014  01E6  0DAF               	rlf	___flmul@grs+1,f
  5015  01E7  0DB0               	rlf	___flmul@grs+2,f
  5016  01E8  0DB1               	rlf	___flmul@grs+3,f
  5017  01E9  0B89               	decfsz	9,f
  5018  01EA  29E5               	goto	u1475
  5019  01EB                     l1793:	
  5020  01EB  30FF               	movlw	255
  5021  01EC  07B8               	addwf	___flmul@temp,f
  5022  01ED  30FF               	movlw	255
  5023  01EE  3DB9               	addwfc	___flmul@temp+1,f
  5024  01EF                     l1795:	
  5025  01EF  1FB6               	btfss	___flmul@prod+2,7
  5026  01F0  29F2               	goto	u1481
  5027  01F1  29F3               	goto	u1480
  5028  01F2                     u1481:	
  5029  01F2  29D8               	goto	l1785
  5030  01F3                     u1480:	
  5031  01F3                     l1797:	
  5032  01F3  01B2               	clrf	___flmul@aexp
  5033  01F4                     l1799:	
  5034  01F4  1FB1               	btfss	___flmul@grs+3,7
  5035  01F5  29F7               	goto	u1491
  5036  01F6  29F8               	goto	u1490
  5037  01F7                     u1491:	
  5038  01F7  2A14               	goto	l1807
  5039  01F8                     u1490:	
  5040  01F8                     l1801:	
  5041  01F8  30FF               	movlw	255
  5042  01F9  052E               	andwf	___flmul@grs,w
  5043  01FA  00A8               	movwf	??___flmul
  5044  01FB  30FF               	movlw	255
  5045  01FC  052F               	andwf	___flmul@grs+1,w
  5046  01FD  00A9               	movwf	??___flmul+1
  5047  01FE  30FF               	movlw	255
  5048  01FF  0530               	andwf	___flmul@grs+2,w
  5049  0200  00AA               	movwf	??___flmul+2
  5050  0201  307F               	movlw	127
  5051  0202  0531               	andwf	___flmul@grs+3,w
  5052  0203  00AB               	movwf	??___flmul+3
  5053  0204  082B               	movf	??___flmul+3,w
  5054  0205  042A               	iorwf	??___flmul+2,w
  5055  0206  0429               	iorwf	??___flmul+1,w
  5056  0207  0428               	iorwf	??___flmul,w
  5057  0208  1903               	skipnz
  5058  0209  2A0B               	goto	u1501
  5059  020A  2A0C               	goto	u1500
  5060  020B                     u1501:	
  5061  020B  2A0F               	goto	l748
  5062  020C                     u1500:	
  5063  020C                     l1803:	
  5064  020C  01B2               	clrf	___flmul@aexp
  5065  020D  0AB2               	incf	___flmul@aexp,f
  5066  020E  2A14               	goto	l1807
  5067  020F                     l748:	
  5068  020F  1C34               	btfss	___flmul@prod,0
  5069  0210  2A12               	goto	u1511
  5070  0211  2A13               	goto	u1510
  5071  0212                     u1511:	
  5072  0212  2A14               	goto	l1807
  5073  0213                     u1510:	
  5074  0213  2A0C               	goto	l1803
  5075  0214                     l1807:	
  5076  0214  0832               	movf	___flmul@aexp,w
  5077  0215  1903               	btfsc	3,2
  5078  0216  2A18               	goto	u1521
  5079  0217  2A19               	goto	u1520
  5080  0218                     u1521:	
  5081  0218  2A41               	goto	l1817
  5082  0219                     u1520:	
  5083  0219                     l1809:	
  5084  0219  3001               	movlw	1
  5085  021A  07B4               	addwf	___flmul@prod,f
  5086  021B  3000               	movlw	0
  5087  021C  3DB5               	addwfc	___flmul@prod+1,f
  5088  021D  3000               	movlw	0
  5089  021E  3DB6               	addwfc	___flmul@prod+2,f
  5090  021F  3000               	movlw	0
  5091  0220  3DB7               	addwfc	___flmul@prod+3,f
  5092  0221                     l1811:	
  5093  0221  1C37               	btfss	___flmul@prod+3,0
  5094  0222  2A24               	goto	u1531
  5095  0223  2A25               	goto	u1530
  5096  0224                     u1531:	
  5097  0224  2A41               	goto	l1817
  5098  0225                     u1530:	
  5099  0225                     l1813:	
  5100  0225  0834               	movf	___flmul@prod,w
  5101  0226  00A8               	movwf	??___flmul
  5102  0227  0835               	movf	___flmul@prod+1,w
  5103  0228  00A9               	movwf	??___flmul+1
  5104  0229  0836               	movf	___flmul@prod+2,w
  5105  022A  00AA               	movwf	??___flmul+2
  5106  022B  0837               	movf	___flmul@prod+3,w
  5107  022C  00AB               	movwf	??___flmul+3
  5108  022D  3001               	movlw	1
  5109  022E  00AC               	movwf	??___flmul+4
  5110  022F                     u1545:	
  5111  022F  37AB               	asrf	??___flmul+3,f
  5112  0230  0CAA               	rrf	??___flmul+2,f
  5113  0231  0CA9               	rrf	??___flmul+1,f
  5114  0232  0CA8               	rrf	??___flmul,f
  5115  0233                     u1540:	
  5116  0233  0BAC               	decfsz	??___flmul+4,f
  5117  0234  2A2F               	goto	u1545
  5118  0235  082B               	movf	??___flmul+3,w
  5119  0236  00B7               	movwf	___flmul@prod+3
  5120  0237  082A               	movf	??___flmul+2,w
  5121  0238  00B6               	movwf	___flmul@prod+2
  5122  0239  0829               	movf	??___flmul+1,w
  5123  023A  00B5               	movwf	___flmul@prod+1
  5124  023B  0828               	movf	??___flmul,w
  5125  023C  00B4               	movwf	___flmul@prod
  5126  023D                     l1815:	
  5127  023D  3001               	movlw	1
  5128  023E  07B8               	addwf	___flmul@temp,f
  5129  023F  3000               	movlw	0
  5130  0240  3DB9               	addwfc	___flmul@temp+1,f
  5131  0241                     l1817:	
  5132  0241  0839               	movf	___flmul@temp+1,w
  5133  0242  3A80               	xorlw	128
  5134  0243  00A8               	movwf	??___flmul
  5135  0244  3080               	movlw	128
  5136  0245  0228               	subwf	??___flmul,w
  5137  0246  1D03               	skipz
  5138  0247  2A4A               	goto	u1555
  5139  0248  30FF               	movlw	255
  5140  0249  0238               	subwf	___flmul@temp,w
  5141  024A                     u1555:	
  5142  024A  1C03               	skipc
  5143  024B  2A4D               	goto	u1551
  5144  024C  2A4E               	goto	u1550
  5145  024D                     u1551:	
  5146  024D  2A58               	goto	l1821
  5147  024E                     u1550:	
  5148  024E                     l1819:	
  5149  024E  307F               	movlw	127
  5150  024F  0020               	movlb	0	; select bank0
  5151  0250  00B7               	movwf	___flmul@prod+3
  5152  0251  3080               	movlw	128
  5153  0252  00B6               	movwf	___flmul@prod+2
  5154  0253  3000               	movlw	0
  5155  0254  00B5               	movwf	___flmul@prod+1
  5156  0255  3000               	movlw	0
  5157  0256  00B4               	movwf	___flmul@prod
  5158  0257  2A87               	goto	l754
  5159  0258                     l1821:	
  5160  0258  0020               	movlb	0	; select bank0
  5161  0259  0839               	movf	___flmul@temp+1,w
  5162  025A  3A80               	xorlw	128
  5163  025B  00A8               	movwf	??___flmul
  5164  025C  3080               	movlw	128
  5165  025D  0228               	subwf	??___flmul,w
  5166  025E  1D03               	skipz
  5167  025F  2A62               	goto	u1565
  5168  0260  3001               	movlw	1
  5169  0261  0238               	subwf	___flmul@temp,w
  5170  0262                     u1565:	
  5171  0262  1803               	skipnc
  5172  0263  2A65               	goto	u1561
  5173  0264  2A66               	goto	u1560
  5174  0265                     u1561:	
  5175  0265  2A71               	goto	l1827
  5176  0266                     u1560:	
  5177  0266                     l1823:	
  5178  0266  3000               	movlw	0
  5179  0267  0020               	movlb	0	; select bank0
  5180  0268  00B7               	movwf	___flmul@prod+3
  5181  0269  3000               	movlw	0
  5182  026A  00B6               	movwf	___flmul@prod+2
  5183  026B  3000               	movlw	0
  5184  026C  00B5               	movwf	___flmul@prod+1
  5185  026D  3000               	movlw	0
  5186  026E  00B4               	movwf	___flmul@prod
  5187  026F                     l1825:	
  5188  026F  01AD               	clrf	___flmul@sign
  5189  0270  2A87               	goto	l754
  5190  0271                     l1827:	
  5191  0271  0020               	movlb	0	; select bank0
  5192  0272  0838               	movf	___flmul@temp,w
  5193  0273  00A8               	movwf	??___flmul
  5194  0274  0828               	movf	??___flmul,w
  5195  0275  00B3               	movwf	___flmul@bexp
  5196  0276  30FF               	movlw	255
  5197  0277  05B4               	andwf	___flmul@prod,f
  5198  0278  30FF               	movlw	255
  5199  0279  05B5               	andwf	___flmul@prod+1,f
  5200  027A  307F               	movlw	127
  5201  027B  05B6               	andwf	___flmul@prod+2,f
  5202  027C  3000               	movlw	0
  5203  027D  05B7               	andwf	___flmul@prod+3,f
  5204  027E                     l1829:	
  5205  027E  1C33               	btfss	___flmul@bexp,0
  5206  027F  2A81               	goto	u1571
  5207  0280  2A82               	goto	u1570
  5208  0281                     u1571:	
  5209  0281  2A83               	goto	l1833
  5210  0282                     u1570:	
  5211  0282                     l1831:	
  5212  0282  17B6               	bsf	___flmul@prod+2,7
  5213  0283                     l1833:	
  5214  0283  3633               	lsrf	___flmul@bexp,w
  5215  0284  00A8               	movwf	??___flmul
  5216  0285  0828               	movf	??___flmul,w
  5217  0286  00B7               	movwf	___flmul@prod+3
  5218  0287                     l754:	
  5219  0287  082D               	movf	___flmul@sign,w
  5220  0288  00A8               	movwf	??___flmul
  5221  0289  0828               	movf	??___flmul,w
  5222  028A  04B7               	iorwf	___flmul@prod+3,f
  5223  028B                     l1835:	
  5224  028B  0837               	movf	___flmul@prod+3,w
  5225  028C  00A3               	movwf	?___flmul+3
  5226  028D  0836               	movf	___flmul@prod+2,w
  5227  028E  00A2               	movwf	?___flmul+2
  5228  028F  0835               	movf	___flmul@prod+1,w
  5229  0290  00A1               	movwf	?___flmul+1
  5230  0291  0834               	movf	___flmul@prod,w
  5231  0292  00A0               	movwf	?___flmul
  5232  0293                     l742:	
  5233  0293  0008               	return
  5234  0294                     __end_of___flmul:	
  5235                           
  5236                           	psect	text15
  5237  0628                     __ptext15:	
  5238 ;; *************** function __Umul8_16 *****************
  5239 ;; Defined at:
  5240 ;;		line 4 in file "C:\Program Files (x86)\Microchip\xc8\v2.10\pic\sources\c99\common\Umul8_16.c"
  5241 ;; Parameters:    Size  Location     Type
  5242 ;;  multiplier      1    wreg     unsigned char 
  5243 ;;  multiplicand    1    0[COMMON] unsigned char 
  5244 ;; Auto vars:     Size  Location     Type
  5245 ;;  multiplier      1    8[COMMON] unsigned char 
  5246 ;;  word_mpld       2    6[COMMON] unsigned int 
  5247 ;;  product         2    4[COMMON] unsigned int 
  5248 ;; Return value:  Size  Location     Type
  5249 ;;                  2    0[COMMON] unsigned int 
  5250 ;; Registers used:
  5251 ;;		wreg, status,2, status,0
  5252 ;; Tracked objects:
  5253 ;;		On entry : 0/0
  5254 ;;		On exit  : 0/0
  5255 ;;		Unchanged: 0/0
  5256 ;; Data sizes:     COMMON   BANK0   BANK1   BANK2   BANK3   BANK4   BANK5   BANK6   BANK7   BANK8   BANK9  BANK10  BANK1
      +1  BANK12
  5257 ;;      Params:         2       0       0       0       0       0       0       0       0       0       0       0       
      +0       0
  5258 ;;      Locals:         5       0       0       0       0       0       0       0       0       0       0       0       
      +0       0
  5259 ;;      Temps:          2       0       0       0       0       0       0       0       0       0       0       0       
      +0       0
  5260 ;;      Totals:         9       0       0       0       0       0       0       0       0       0       0       0       
      +0       0
  5261 ;;Total ram usage:        9 bytes
  5262 ;; Hardware stack levels used:    1
  5263 ;; Hardware stack levels required when called:    1
  5264 ;; This function calls:
  5265 ;;		Nothing
  5266 ;; This function is called by:
  5267 ;;		___flmul
  5268 ;; This function uses a non-reentrant model
  5269 ;;
  5270                           
  5271                           
  5272                           ;psect for function __Umul8_16
  5273  0628                     __Umul8_16:	
  5274                           
  5275                           ;incstack = 0
  5276                           ; Regs used in __Umul8_16: [wreg+status,2+status,0]
  5277                           ;__Umul8_16@multiplier stored from wreg
  5278  0628  00F8               	movwf	__Umul8_16@multiplier
  5279  0629                     l1469:	
  5280  0629  01F4               	clrf	__Umul8_16@product
  5281  062A  01F5               	clrf	__Umul8_16@product+1
  5282  062B                     l1471:	
  5283  062B  0870               	movf	__Umul8_16@multiplicand,w
  5284  062C  00F2               	movwf	??__Umul8_16
  5285  062D  01F3               	clrf	??__Umul8_16+1
  5286  062E  0872               	movf	??__Umul8_16,w
  5287  062F  00F6               	movwf	__Umul8_16@word_mpld
  5288  0630  0873               	movf	??__Umul8_16+1,w
  5289  0631  00F7               	movwf	__Umul8_16@word_mpld+1
  5290  0632                     l1473:	
  5291  0632  1C78               	btfss	__Umul8_16@multiplier,0
  5292  0633  2E35               	goto	u961
  5293  0634  2E36               	goto	u960
  5294  0635                     u961:	
  5295  0635  2E3A               	goto	l805
  5296  0636                     u960:	
  5297  0636                     l1475:	
  5298  0636  0876               	movf	__Umul8_16@word_mpld,w
  5299  0637  07F4               	addwf	__Umul8_16@product,f
  5300  0638  0877               	movf	__Umul8_16@word_mpld+1,w
  5301  0639  3DF5               	addwfc	__Umul8_16@product+1,f
  5302  063A                     l805:	
  5303  063A  3001               	movlw	1
  5304  063B                     u975:	
  5305  063B  35F6               	lslf	__Umul8_16@word_mpld,f
  5306  063C  0DF7               	rlf	__Umul8_16@word_mpld+1,f
  5307  063D  0B89               	decfsz	9,f
  5308  063E  2E3B               	goto	u975
  5309  063F  1003               	clrc
  5310  0640  0CF8               	rrf	__Umul8_16@multiplier,f
  5311  0641                     l1477:	
  5312  0641  0878               	movf	__Umul8_16@multiplier,w
  5313  0642  1D03               	btfss	3,2
  5314  0643  2E45               	goto	u981
  5315  0644  2E46               	goto	u980
  5316  0645                     u981:	
  5317  0645  2E32               	goto	l1473
  5318  0646                     u980:	
  5319  0646                     l1479:	
  5320  0646  0875               	movf	__Umul8_16@product+1,w
  5321  0647  00F1               	movwf	?__Umul8_16+1
  5322  0648  0874               	movf	__Umul8_16@product,w
  5323  0649  00F0               	movwf	?__Umul8_16
  5324  064A                     l807:	
  5325  064A  0008               	return
  5326  064B                     __end_of__Umul8_16:	
  5327                           
  5328                           	psect	text16
  5329  0534                     __ptext16:	
  5330 ;; *************** function ___awmod *****************
  5331 ;; Defined at:
  5332 ;;		line 5 in file "C:\Program Files (x86)\Microchip\xc8\v2.10\pic\sources\c99\common\awmod.c"
  5333 ;; Parameters:    Size  Location     Type
  5334 ;;  divisor         2    0[COMMON] int 
  5335 ;;  dividend        2    2[COMMON] int 
  5336 ;; Auto vars:     Size  Location     Type
  5337 ;;  sign            1    6[COMMON] unsigned char 
  5338 ;;  counter         1    5[COMMON] unsigned char 
  5339 ;; Return value:  Size  Location     Type
  5340 ;;                  2    0[COMMON] int 
  5341 ;; Registers used:
  5342 ;;		wreg, status,2, status,0
  5343 ;; Tracked objects:
  5344 ;;		On entry : 0/0
  5345 ;;		On exit  : 0/0
  5346 ;;		Unchanged: 0/0
  5347 ;; Data sizes:     COMMON   BANK0   BANK1   BANK2   BANK3   BANK4   BANK5   BANK6   BANK7   BANK8   BANK9  BANK10  BANK1
      +1  BANK12
  5348 ;;      Params:         4       0       0       0       0       0       0       0       0       0       0       0       
      +0       0
  5349 ;;      Locals:         2       0       0       0       0       0       0       0       0       0       0       0       
      +0       0
  5350 ;;      Temps:          1       0       0       0       0       0       0       0       0       0       0       0       
      +0       0
  5351 ;;      Totals:         7       0       0       0       0       0       0       0       0       0       0       0       
      +0       0
  5352 ;;Total ram usage:        7 bytes
  5353 ;; Hardware stack levels used:    1
  5354 ;; Hardware stack levels required when called:    1
  5355 ;; This function calls:
  5356 ;;		Nothing
  5357 ;; This function is called by:
  5358 ;;		_main
  5359 ;; This function uses a non-reentrant model
  5360 ;;
  5361                           
  5362                           
  5363                           ;psect for function ___awmod
  5364  0534                     ___awmod:	
  5365  0534                     l1625:	
  5366                           ;incstack = 0
  5367                           ; Regs used in ___awmod: [wreg+status,2+status,0]
  5368                           
  5369  0534  01F6               	clrf	___awmod@sign
  5370  0535                     l1627:	
  5371  0535  1FF3               	btfss	___awmod@dividend+1,7
  5372  0536  2D38               	goto	u1131
  5373  0537  2D39               	goto	u1130
  5374  0538                     u1131:	
  5375  0538  2D40               	goto	l1633
  5376  0539                     u1130:	
  5377  0539                     l1629:	
  5378  0539  09F2               	comf	___awmod@dividend,f
  5379  053A  09F3               	comf	___awmod@dividend+1,f
  5380  053B  0AF2               	incf	___awmod@dividend,f
  5381  053C  1903               	skipnz
  5382  053D  0AF3               	incf	___awmod@dividend+1,f
  5383  053E                     l1631:	
  5384  053E  01F6               	clrf	___awmod@sign
  5385  053F  0AF6               	incf	___awmod@sign,f
  5386  0540                     l1633:	
  5387  0540  1FF1               	btfss	___awmod@divisor+1,7
  5388  0541  2D43               	goto	u1141
  5389  0542  2D44               	goto	u1140
  5390  0543                     u1141:	
  5391  0543  2D49               	goto	l1637
  5392  0544                     u1140:	
  5393  0544                     l1635:	
  5394  0544  09F0               	comf	___awmod@divisor,f
  5395  0545  09F1               	comf	___awmod@divisor+1,f
  5396  0546  0AF0               	incf	___awmod@divisor,f
  5397  0547  1903               	skipnz
  5398  0548  0AF1               	incf	___awmod@divisor+1,f
  5399  0549                     l1637:	
  5400  0549  0870               	movf	___awmod@divisor,w
  5401  054A  0471               	iorwf	___awmod@divisor+1,w
  5402  054B  1903               	btfsc	3,2
  5403  054C  2D4E               	goto	u1151
  5404  054D  2D4F               	goto	u1150
  5405  054E                     u1151:	
  5406  054E  2D78               	goto	l1655
  5407  054F                     u1150:	
  5408  054F                     l1639:	
  5409  054F  01F5               	clrf	___awmod@counter
  5410  0550  0AF5               	incf	___awmod@counter,f
  5411  0551  2D5B               	goto	l1645
  5412  0552                     l1641:	
  5413  0552  3001               	movlw	1
  5414  0553                     u1165:	
  5415  0553  35F0               	lslf	___awmod@divisor,f
  5416  0554  0DF1               	rlf	___awmod@divisor+1,f
  5417  0555  0B89               	decfsz	9,f
  5418  0556  2D53               	goto	u1165
  5419  0557                     l1643:	
  5420  0557  3001               	movlw	1
  5421  0558  00F4               	movwf	??___awmod
  5422  0559  0874               	movf	??___awmod,w
  5423  055A  07F5               	addwf	___awmod@counter,f
  5424  055B                     l1645:	
  5425  055B  1FF1               	btfss	___awmod@divisor+1,7
  5426  055C  2D5E               	goto	u1171
  5427  055D  2D5F               	goto	u1170
  5428  055E                     u1171:	
  5429  055E  2D52               	goto	l1641
  5430  055F                     u1170:	
  5431  055F                     l1647:	
  5432  055F  0871               	movf	___awmod@divisor+1,w
  5433  0560  0273               	subwf	___awmod@dividend+1,w
  5434  0561  1D03               	skipz
  5435  0562  2D65               	goto	u1185
  5436  0563  0870               	movf	___awmod@divisor,w
  5437  0564  0272               	subwf	___awmod@dividend,w
  5438  0565                     u1185:	
  5439  0565  1C03               	skipc
  5440  0566  2D68               	goto	u1181
  5441  0567  2D69               	goto	u1180
  5442  0568                     u1181:	
  5443  0568  2D6D               	goto	l1651
  5444  0569                     u1180:	
  5445  0569                     l1649:	
  5446  0569  0870               	movf	___awmod@divisor,w
  5447  056A  02F2               	subwf	___awmod@dividend,f
  5448  056B  0871               	movf	___awmod@divisor+1,w
  5449  056C  3BF3               	subwfb	___awmod@dividend+1,f
  5450  056D                     l1651:	
  5451  056D  3001               	movlw	1
  5452  056E                     u1195:	
  5453  056E  36F1               	lsrf	___awmod@divisor+1,f
  5454  056F  0CF0               	rrf	___awmod@divisor,f
  5455  0570  0B89               	decfsz	9,f
  5456  0571  2D6E               	goto	u1195
  5457  0572                     l1653:	
  5458  0572  3001               	movlw	1
  5459  0573  02F5               	subwf	___awmod@counter,f
  5460  0574  1D03               	btfss	3,2
  5461  0575  2D77               	goto	u1201
  5462  0576  2D78               	goto	u1200
  5463  0577                     u1201:	
  5464  0577  2D5F               	goto	l1647
  5465  0578                     u1200:	
  5466  0578                     l1655:	
  5467  0578  0876               	movf	___awmod@sign,w
  5468  0579  1903               	btfsc	3,2
  5469  057A  2D7C               	goto	u1211
  5470  057B  2D7D               	goto	u1210
  5471  057C                     u1211:	
  5472  057C  2D82               	goto	l1659
  5473  057D                     u1210:	
  5474  057D                     l1657:	
  5475  057D  09F2               	comf	___awmod@dividend,f
  5476  057E  09F3               	comf	___awmod@dividend+1,f
  5477  057F  0AF2               	incf	___awmod@dividend,f
  5478  0580  1903               	skipnz
  5479  0581  0AF3               	incf	___awmod@dividend+1,f
  5480  0582                     l1659:	
  5481  0582  0873               	movf	___awmod@dividend+1,w
  5482  0583  00F1               	movwf	?___awmod+1
  5483  0584  0872               	movf	___awmod@dividend,w
  5484  0585  00F0               	movwf	?___awmod
  5485  0586                     l511:	
  5486  0586  0008               	return
  5487  0587                     __end_of___awmod:	
  5488                           
  5489                           	psect	text17
  5490  047C                     __ptext17:	
  5491 ;; *************** function ___awdiv *****************
  5492 ;; Defined at:
  5493 ;;		line 5 in file "C:\Program Files (x86)\Microchip\xc8\v2.10\pic\sources\c99\common\awdiv.c"
  5494 ;; Parameters:    Size  Location     Type
  5495 ;;  divisor         2    0[COMMON] int 
  5496 ;;  dividend        2    2[COMMON] int 
  5497 ;; Auto vars:     Size  Location     Type
  5498 ;;  quotient        2    7[COMMON] int 
  5499 ;;  sign            1    6[COMMON] unsigned char 
  5500 ;;  counter         1    5[COMMON] unsigned char 
  5501 ;; Return value:  Size  Location     Type
  5502 ;;                  2    0[COMMON] int 
  5503 ;; Registers used:
  5504 ;;		wreg, status,2, status,0
  5505 ;; Tracked objects:
  5506 ;;		On entry : 0/0
  5507 ;;		On exit  : 0/0
  5508 ;;		Unchanged: 0/0
  5509 ;; Data sizes:     COMMON   BANK0   BANK1   BANK2   BANK3   BANK4   BANK5   BANK6   BANK7   BANK8   BANK9  BANK10  BANK1
      +1  BANK12
  5510 ;;      Params:         4       0       0       0       0       0       0       0       0       0       0       0       
      +0       0
  5511 ;;      Locals:         4       0       0       0       0       0       0       0       0       0       0       0       
      +0       0
  5512 ;;      Temps:          1       0       0       0       0       0       0       0       0       0       0       0       
      +0       0
  5513 ;;      Totals:         9       0       0       0       0       0       0       0       0       0       0       0       
      +0       0
  5514 ;;Total ram usage:        9 bytes
  5515 ;; Hardware stack levels used:    1
  5516 ;; Hardware stack levels required when called:    1
  5517 ;; This function calls:
  5518 ;;		Nothing
  5519 ;; This function is called by:
  5520 ;;		_main
  5521 ;; This function uses a non-reentrant model
  5522 ;;
  5523                           
  5524                           
  5525                           ;psect for function ___awdiv
  5526  047C                     ___awdiv:	
  5527  047C                     l1581:	
  5528                           ;incstack = 0
  5529                           ; Regs used in ___awdiv: [wreg+status,2+status,0]
  5530                           
  5531  047C  01F6               	clrf	___awdiv@sign
  5532  047D                     l1583:	
  5533  047D  1FF1               	btfss	___awdiv@divisor+1,7
  5534  047E  2C80               	goto	u1031
  5535  047F  2C81               	goto	u1030
  5536  0480                     u1031:	
  5537  0480  2C88               	goto	l1589
  5538  0481                     u1030:	
  5539  0481                     l1585:	
  5540  0481  09F0               	comf	___awdiv@divisor,f
  5541  0482  09F1               	comf	___awdiv@divisor+1,f
  5542  0483  0AF0               	incf	___awdiv@divisor,f
  5543  0484  1903               	skipnz
  5544  0485  0AF1               	incf	___awdiv@divisor+1,f
  5545  0486                     l1587:	
  5546  0486  01F6               	clrf	___awdiv@sign
  5547  0487  0AF6               	incf	___awdiv@sign,f
  5548  0488                     l1589:	
  5549  0488  1FF3               	btfss	___awdiv@dividend+1,7
  5550  0489  2C8B               	goto	u1041
  5551  048A  2C8C               	goto	u1040
  5552  048B                     u1041:	
  5553  048B  2C95               	goto	l1595
  5554  048C                     u1040:	
  5555  048C                     l1591:	
  5556  048C  09F2               	comf	___awdiv@dividend,f
  5557  048D  09F3               	comf	___awdiv@dividend+1,f
  5558  048E  0AF2               	incf	___awdiv@dividend,f
  5559  048F  1903               	skipnz
  5560  0490  0AF3               	incf	___awdiv@dividend+1,f
  5561  0491                     l1593:	
  5562  0491  3001               	movlw	1
  5563  0492  00F4               	movwf	??___awdiv
  5564  0493  0874               	movf	??___awdiv,w
  5565  0494  06F6               	xorwf	___awdiv@sign,f
  5566  0495                     l1595:	
  5567  0495  01F7               	clrf	___awdiv@quotient
  5568  0496  01F8               	clrf	___awdiv@quotient+1
  5569  0497                     l1597:	
  5570  0497  0870               	movf	___awdiv@divisor,w
  5571  0498  0471               	iorwf	___awdiv@divisor+1,w
  5572  0499  1903               	btfsc	3,2
  5573  049A  2C9C               	goto	u1051
  5574  049B  2C9D               	goto	u1050
  5575  049C                     u1051:	
  5576  049C  2CCC               	goto	l1617
  5577  049D                     u1050:	
  5578  049D                     l1599:	
  5579  049D  01F5               	clrf	___awdiv@counter
  5580  049E  0AF5               	incf	___awdiv@counter,f
  5581  049F  2CA9               	goto	l1605
  5582  04A0                     l1601:	
  5583  04A0  3001               	movlw	1
  5584  04A1                     u1065:	
  5585  04A1  35F0               	lslf	___awdiv@divisor,f
  5586  04A2  0DF1               	rlf	___awdiv@divisor+1,f
  5587  04A3  0B89               	decfsz	9,f
  5588  04A4  2CA1               	goto	u1065
  5589  04A5                     l1603:	
  5590  04A5  3001               	movlw	1
  5591  04A6  00F4               	movwf	??___awdiv
  5592  04A7  0874               	movf	??___awdiv,w
  5593  04A8  07F5               	addwf	___awdiv@counter,f
  5594  04A9                     l1605:	
  5595  04A9  1FF1               	btfss	___awdiv@divisor+1,7
  5596  04AA  2CAC               	goto	u1071
  5597  04AB  2CAD               	goto	u1070
  5598  04AC                     u1071:	
  5599  04AC  2CA0               	goto	l1601
  5600  04AD                     u1070:	
  5601  04AD                     l1607:	
  5602  04AD  3001               	movlw	1
  5603  04AE                     u1085:	
  5604  04AE  35F7               	lslf	___awdiv@quotient,f
  5605  04AF  0DF8               	rlf	___awdiv@quotient+1,f
  5606  04B0  0B89               	decfsz	9,f
  5607  04B1  2CAE               	goto	u1085
  5608  04B2  0871               	movf	___awdiv@divisor+1,w
  5609  04B3  0273               	subwf	___awdiv@dividend+1,w
  5610  04B4  1D03               	skipz
  5611  04B5  2CB8               	goto	u1095
  5612  04B6  0870               	movf	___awdiv@divisor,w
  5613  04B7  0272               	subwf	___awdiv@dividend,w
  5614  04B8                     u1095:	
  5615  04B8  1C03               	skipc
  5616  04B9  2CBB               	goto	u1091
  5617  04BA  2CBC               	goto	u1090
  5618  04BB                     u1091:	
  5619  04BB  2CC1               	goto	l1613
  5620  04BC                     u1090:	
  5621  04BC                     l1609:	
  5622  04BC  0870               	movf	___awdiv@divisor,w
  5623  04BD  02F2               	subwf	___awdiv@dividend,f
  5624  04BE  0871               	movf	___awdiv@divisor+1,w
  5625  04BF  3BF3               	subwfb	___awdiv@dividend+1,f
  5626  04C0                     l1611:	
  5627  04C0  1477               	bsf	___awdiv@quotient,0
  5628  04C1                     l1613:	
  5629  04C1  3001               	movlw	1
  5630  04C2                     u1105:	
  5631  04C2  36F1               	lsrf	___awdiv@divisor+1,f
  5632  04C3  0CF0               	rrf	___awdiv@divisor,f
  5633  04C4  0B89               	decfsz	9,f
  5634  04C5  2CC2               	goto	u1105
  5635  04C6                     l1615:	
  5636  04C6  3001               	movlw	1
  5637  04C7  02F5               	subwf	___awdiv@counter,f
  5638  04C8  1D03               	btfss	3,2
  5639  04C9  2CCB               	goto	u1111
  5640  04CA  2CCC               	goto	u1110
  5641  04CB                     u1111:	
  5642  04CB  2CAD               	goto	l1607
  5643  04CC                     u1110:	
  5644  04CC                     l1617:	
  5645  04CC  0876               	movf	___awdiv@sign,w
  5646  04CD  1903               	btfsc	3,2
  5647  04CE  2CD0               	goto	u1121
  5648  04CF  2CD1               	goto	u1120
  5649  04D0                     u1121:	
  5650  04D0  2CD6               	goto	l1621
  5651  04D1                     u1120:	
  5652  04D1                     l1619:	
  5653  04D1  09F7               	comf	___awdiv@quotient,f
  5654  04D2  09F8               	comf	___awdiv@quotient+1,f
  5655  04D3  0AF7               	incf	___awdiv@quotient,f
  5656  04D4  1903               	skipnz
  5657  04D5  0AF8               	incf	___awdiv@quotient+1,f
  5658  04D6                     l1621:	
  5659  04D6  0878               	movf	___awdiv@quotient+1,w
  5660  04D7  00F1               	movwf	?___awdiv+1
  5661  04D8  0877               	movf	___awdiv@quotient,w
  5662  04D9  00F0               	movwf	?___awdiv
  5663  04DA                     l498:	
  5664  04DA  0008               	return
  5665  04DB                     __end_of___awdiv:	
  5666                           
  5667                           	psect	text18
  5668  06C1                     __ptext18:	
  5669 ;; *************** function _T0_init *****************
  5670 ;; Defined at:
  5671 ;;		line 117 in file "main.c"
  5672 ;; Parameters:    Size  Location     Type
  5673 ;;		None
  5674 ;; Auto vars:     Size  Location     Type
  5675 ;;		None
  5676 ;; Return value:  Size  Location     Type
  5677 ;;                  1    wreg      void 
  5678 ;; Registers used:
  5679 ;;		wreg, status,2, status,0
  5680 ;; Tracked objects:
  5681 ;;		On entry : 0/0
  5682 ;;		On exit  : 0/0
  5683 ;;		Unchanged: 0/0
  5684 ;; Data sizes:     COMMON   BANK0   BANK1   BANK2   BANK3   BANK4   BANK5   BANK6   BANK7   BANK8   BANK9  BANK10  BANK1
      +1  BANK12
  5685 ;;      Params:         0       0       0       0       0       0       0       0       0       0       0       0       
      +0       0
  5686 ;;      Locals:         0       0       0       0       0       0       0       0       0       0       0       0       
      +0       0
  5687 ;;      Temps:          0       0       0       0       0       0       0       0       0       0       0       0       
      +0       0
  5688 ;;      Totals:         0       0       0       0       0       0       0       0       0       0       0       0       
      +0       0
  5689 ;;Total ram usage:        0 bytes
  5690 ;; Hardware stack levels used:    1
  5691 ;; Hardware stack levels required when called:    1
  5692 ;; This function calls:
  5693 ;;		Nothing
  5694 ;; This function is called by:
  5695 ;;		_main
  5696 ;; This function uses a non-reentrant model
  5697 ;;
  5698                           
  5699                           
  5700                           ;psect for function _T0_init
  5701  06C1                     _T0_init:	
  5702  06C1                     l1483:	
  5703                           ;incstack = 0
  5704                           ; Regs used in _T0_init: [wreg+status,2+status,0]
  5705                           
  5706                           
  5707                           ;main.c: 118:     T016BIT = 1;
  5708  06C1  0020               	movlb	0	; select bank0
  5709  06C2  161E               	bsf	30,4	;volatile
  5710  06C3                     l1485:	
  5711                           
  5712                           ;main.c: 119:     T0CON1bits.T0CS = 2;
  5713  06C3  081F               	movf	31,w	;volatile
  5714  06C4  391F               	andlw	-225
  5715  06C5  3840               	iorlw	64
  5716  06C6  009F               	movwf	31	;volatile
  5717                           
  5718                           ;main.c: 120:     T0CON1bits.T0CKPS = 4;
  5719  06C7  081F               	movf	31,w	;volatile
  5720  06C8  39F0               	andlw	-16
  5721  06C9  3804               	iorlw	4
  5722  06CA  009F               	movwf	31	;volatile
  5723  06CB                     l1487:	
  5724                           
  5725                           ;main.c: 121:     TMR0 = (short)(65536 - 1 * 4000000 / (4 * 16));
  5726  06CB  30DC               	movlw	220
  5727  06CC  009C               	movwf	28	;volatile
  5728  06CD                     l1489:	
  5729                           
  5730                           ;main.c: 122:     TMR0IF = 0;
  5731  06CD  002E               	movlb	14	; select bank14
  5732  06CE  128C               	bcf	12,5	;volatile
  5733  06CF                     l1491:	
  5734                           
  5735                           ;main.c: 123:     TMR0IE = 1;
  5736  06CF  1696               	bsf	22,5	;volatile
  5737  06D0                     l114:	
  5738  06D0  0008               	return
  5739  06D1                     __end_of_T0_init:	
  5740                           
  5741                           	psect	text19
  5742  069A                     __ptext19:	
  5743 ;; *************** function _EUSART_init *****************
  5744 ;; Defined at:
  5745 ;;		line 126 in file "main.c"
  5746 ;; Parameters:    Size  Location     Type
  5747 ;;		None
  5748 ;; Auto vars:     Size  Location     Type
  5749 ;;		None
  5750 ;; Return value:  Size  Location     Type
  5751 ;;                  1    wreg      void 
  5752 ;; Registers used:
  5753 ;;		wreg
  5754 ;; Tracked objects:
  5755 ;;		On entry : 0/0
  5756 ;;		On exit  : 0/0
  5757 ;;		Unchanged: 0/0
  5758 ;; Data sizes:     COMMON   BANK0   BANK1   BANK2   BANK3   BANK4   BANK5   BANK6   BANK7   BANK8   BANK9  BANK10  BANK1
      +1  BANK12
  5759 ;;      Params:         0       0       0       0       0       0       0       0       0       0       0       0       
      +0       0
  5760 ;;      Locals:         0       0       0       0       0       0       0       0       0       0       0       0       
      +0       0
  5761 ;;      Temps:          0       0       0       0       0       0       0       0       0       0       0       0       
      +0       0
  5762 ;;      Totals:         0       0       0       0       0       0       0       0       0       0       0       0       
      +0       0
  5763 ;;Total ram usage:        0 bytes
  5764 ;; Hardware stack levels used:    1
  5765 ;; Hardware stack levels required when called:    1
  5766 ;; This function calls:
  5767 ;;		Nothing
  5768 ;; This function is called by:
  5769 ;;		_main
  5770 ;; This function uses a non-reentrant model
  5771 ;;
  5772                           
  5773                           
  5774                           ;psect for function _EUSART_init
  5775  069A                     _EUSART_init:	
  5776  069A                     l1509:	
  5777                           ;incstack = 0
  5778                           ; Regs used in _EUSART_init: [wreg]
  5779                           
  5780                           
  5781                           ;main.c: 128:     TX1STAbits.BRGH = 1;
  5782  069A  0022               	movlb	2	; select bank2
  5783  069B  151E               	bsf	30,2	;volatile
  5784                           
  5785                           ;main.c: 129:     TX1STAbits.SYNC = 0;
  5786  069C  121E               	bcf	30,4	;volatile
  5787                           
  5788                           ;main.c: 130:     SP1BRG = (short)(4000000 /9600/16 - 1);
  5789  069D  3000               	movlw	0
  5790  069E  009C               	movwf	28	;volatile
  5791  069F  3019               	movlw	25
  5792  06A0  009B               	movwf	27	;volatile
  5793                           
  5794                           ;main.c: 132:     RC1STAbits.SPEN = 1;
  5795  06A1  179D               	bsf	29,7	;volatile
  5796                           
  5797                           ;main.c: 133:     TX1STAbits.TXEN = 1;
  5798  06A2  169E               	bsf	30,5	;volatile
  5799                           
  5800                           ;main.c: 134:     RC1STAbits.CREN = 1;
  5801  06A3  161D               	bsf	29,4	;volatile
  5802  06A4                     l1511:	
  5803                           
  5804                           ;main.c: 136:     RC6PPS = 0x10;
  5805  06A4  3010               	movlw	16
  5806  06A5  003E               	movlb	30	; select bank30
  5807  06A6  00A6               	movwf	38	;volatile
  5808  06A7                     l1513:	
  5809                           
  5810                           ;main.c: 138:     ANSELCbits.ANSC7 = 0;
  5811  06A7  13CE               	bcf	78,7	;volatile
  5812  06A8                     l1515:	
  5813                           
  5814                           ;main.c: 139:     ANSELCbits.ANSC6 = 0;
  5815  06A8  134E               	bcf	78,6	;volatile
  5816  06A9                     l1517:	
  5817                           
  5818                           ;main.c: 140:     TRISC6 = 1;
  5819  06A9  0020               	movlb	0	; select bank0
  5820  06AA  1713               	bsf	19,6	;volatile
  5821  06AB                     l1519:	
  5822                           
  5823                           ;main.c: 141:     TRISC7 = 1;
  5824  06AB  1793               	bsf	19,7	;volatile
  5825  06AC                     l1521:	
  5826                           
  5827                           ;main.c: 143:     TXIE = 0;
  5828  06AC  002E               	movlb	14	; select bank14
  5829  06AD  1219               	bcf	25,4	;volatile
  5830  06AE                     l117:	
  5831  06AE  0008               	return
  5832  06AF                     __end_of_EUSART_init:	
  5833                           
  5834                           	psect	intentry
  5835  0004                     __pintentry:	
  5836 ;; *************** function _ISR *****************
  5837 ;; Defined at:
  5838 ;;		line 78 in file "main.c"
  5839 ;; Parameters:    Size  Location     Type
  5840 ;;		None
  5841 ;; Auto vars:     Size  Location     Type
  5842 ;;		None
  5843 ;; Return value:  Size  Location     Type
  5844 ;;                  1    wreg      void 
  5845 ;; Registers used:
  5846 ;;		wreg
  5847 ;; Tracked objects:
  5848 ;;		On entry : 0/0
  5849 ;;		On exit  : 0/0
  5850 ;;		Unchanged: 0/0
  5851 ;; Data sizes:     COMMON   BANK0   BANK1   BANK2   BANK3   BANK4   BANK5   BANK6   BANK7   BANK8   BANK9  BANK10  BANK1
      +1  BANK12
  5852 ;;      Params:         0       0       0       0       0       0       0       0       0       0       0       0       
      +0       0
  5853 ;;      Locals:         0       0       0       0       0       0       0       0       0       0       0       0       
      +0       0
  5854 ;;      Temps:          0       0       0       0       0       0       0       0       0       0       0       0       
      +0       0
  5855 ;;      Totals:         0       0       0       0       0       0       0       0       0       0       0       0       
      +0       0
  5856 ;;Total ram usage:        0 bytes
  5857 ;; Hardware stack levels used:    1
  5858 ;; This function calls:
  5859 ;;		Nothing
  5860 ;; This function is called by:
  5861 ;;		Interrupt level 1
  5862 ;; This function uses a non-reentrant model
  5863 ;;
  5864                           
  5865  0004                     _ISR:	
  5866                           
  5867                           ;incstack = 0
  5868  0004  147E               	bsf	int$flags,0	;set compiler interrupt flag (level 1)
  5869                           
  5870                           ; Regs used in _ISR: [wreg]
  5871  0005  3180               	pagesel	$
  5872  0006                     i1l1939:	
  5873                           
  5874                           ;main.c: 79:     if (TMR0IE && TMR0IF){
  5875  0006  002E               	movlb	14	; select bank14
  5876  0007  1E96               	btfss	22,5	;volatile
  5877  0008  280A               	goto	u175_21
  5878  0009  280B               	goto	u175_20
  5879  000A                     u175_21:	
  5880  000A  281B               	goto	i1l1951
  5881  000B                     u175_20:	
  5882  000B                     i1l1941:	
  5883  000B  1E8C               	btfss	12,5	;volatile
  5884  000C  280E               	goto	u176_21
  5885  000D  280F               	goto	u176_20
  5886  000E                     u176_21:	
  5887  000E  281B               	goto	i1l1951
  5888  000F                     u176_20:	
  5889  000F                     i1l1943:	
  5890                           
  5891                           ;main.c: 80:         LATA3 = ~LATA3;
  5892  000F  3008               	movlw	8
  5893  0010  0020               	movlb	0	; select bank0
  5894  0011  0696               	xorwf	22,f
  5895  0012                     i1l1945:	
  5896                           
  5897                           ;main.c: 81:         ADCON0bits.ADGO = 1;
  5898  0012  0021               	movlb	1	; select bank1
  5899  0013  1413               	bsf	19,0	;volatile
  5900                           
  5901                           ;main.c: 82:         TMR0 = (short)(65536 - 1 * 4000000 / (4 * 16));
  5902  0014  30DC               	movlw	220
  5903  0015  0020               	movlb	0	; select bank0
  5904  0016  009C               	movwf	28	;volatile
  5905  0017                     i1l1947:	
  5906                           
  5907                           ;main.c: 83:         TMR0IF = 0;
  5908  0017  002E               	movlb	14	; select bank14
  5909  0018  128C               	bcf	12,5	;volatile
  5910  0019                     i1l1949:	
  5911                           
  5912                           ;main.c: 85:         T0EN = 0;
  5913  0019  0020               	movlb	0	; select bank0
  5914  001A  139E               	bcf	30,7	;volatile
  5915  001B                     i1l1951:	
  5916                           
  5917                           ;main.c: 87:     if (ADIF && ADIE){
  5918  001B  002E               	movlb	14	; select bank14
  5919  001C  1C0D               	btfss	13,0	;volatile
  5920  001D  281F               	goto	u177_21
  5921  001E  2820               	goto	u177_20
  5922  001F                     u177_21:	
  5923  001F  2831               	goto	i1l108
  5924  0020                     u177_20:	
  5925  0020                     i1l1953:	
  5926  0020  1C17               	btfss	23,0	;volatile
  5927  0021  2823               	goto	u178_21
  5928  0022  2824               	goto	u178_20
  5929  0023                     u178_21:	
  5930  0023  2831               	goto	i1l108
  5931  0024                     u178_20:	
  5932  0024                     i1l1955:	
  5933                           
  5934                           ;main.c: 88:         tmp = ADRES;
  5935  0024  0021               	movlb	1	; select bank1
  5936  0025  080D               	movf	13,w	;volatile
  5937  0026  0020               	movlb	0	; select bank0
  5938  0027  00CC               	movwf	_tmp+1
  5939  0028  0021               	movlb	1	; select bank1
  5940  0029  080C               	movf	12,w	;volatile
  5941  002A  0020               	movlb	0	; select bank0
  5942  002B  00CB               	movwf	_tmp
  5943  002C                     i1l1957:	
  5944                           
  5945                           ;main.c: 89:         ADIF = 0;
  5946  002C  002E               	movlb	14	; select bank14
  5947  002D  100D               	bcf	13,0	;volatile
  5948  002E                     i1l1959:	
  5949                           
  5950                           ;main.c: 91:         check = 1;
  5951  002E  0020               	movlb	0	; select bank0
  5952  002F  01CA               	clrf	_check
  5953  0030  0ACA               	incf	_check,f
  5954  0031                     i1l108:	
  5955  0031  107E               	bcf	int$flags,0	;clear compiler interrupt flag (level 1)
  5956  0032  0009               	retfie
  5957  0033                     __end_of_ISR:	
  5958  007E                     btemp	set	126	;btemp
  5959  007E                     int$flags	set	126
  5960  007E                     wtemp0	set	126


Data Sizes:
    Strings     7
    Constant    0
    Data        0
    BSS         3
    Persistent  32
    Stack       0

Auto Spaces:
    Space          Size  Autos    Used
    COMMON           14     14      14
    BANK0            80     42      45
    BANK1            80      0       0
    BANK2            80      0       0
    BANK3            80      0       0
    BANK4            80      0       0
    BANK5            80      0       0
    BANK6            80      0       0
    BANK7            80      0       0
    BANK8            80      0       0
    BANK9            80      0       0
    BANK10           80      0       0
    BANK11           80      0       0
    BANK12           48      0       0

Pointer List with Targets:

    memcpy@d1	PTR void  size(2) Largest target is 1
		 -> TXREG(SFR2[1]), 

    memcpy@d	PTR unsigned char  size(2) Largest target is 1
		 -> TXREG(SFR2[1]), 

    memcpy@s1	PTR const void  size(1) Largest target is 2
		 -> main@t(BANK0[2]), 

    memcpy@s	PTR const unsigned char  size(1) Largest target is 2
		 -> main@t(BANK0[2]), 

    lcd_write_ascii@str	PTR unsigned char  size(2) Largest target is 7
		 -> main@t(BANK0[2]), STR_1(CODE[7]), 

    uart_send_ascii@data	PTR unsigned char  size(1) Largest target is 2
		 -> main@t(BANK0[2]), 

    sp__memcpy	PTR void  size(2) Largest target is 1
		 -> TXREG(SFR2[1]), 

    uart_send_byte@num	PTR void  size(1) Largest target is 2
		 -> main@t(BANK0[2]), 

    uart_send_byte@ptr	PTR unsigned char  size(1) Largest target is 2
		 -> main@t(BANK0[2]), 


Critical Paths under _main in COMMON

    _main->___xxtofl
    _main->_uart_send_ascii
    _uart_send_ascii->_uart_send_byte
    _uart_send_byte->_memcpy
    _lcd_write_ascii->_lcd_send_data
    _lcd_send_data->_lcd_write_data
    _lcd_set_cursor->_lcd_send_cmd
    _lcd_init->_display_controll
    _display_controll->_lcd_send_cmd
    _lcd_send_cmd->_lcd_write_data
    ___fltol->___xxtofl
    ___flmul->___xxtofl

Critical Paths under _ISR in COMMON

    None.

Critical Paths under _main in BANK0

    _main->___fltol
    _uart_send_ascii->_uart_send_byte
    ___fltol->___flmul

Critical Paths under _ISR in BANK0

    None.

Critical Paths under _main in BANK1

    None.

Critical Paths under _ISR in BANK1

    None.

Critical Paths under _main in BANK2

    None.

Critical Paths under _ISR in BANK2

    None.

Critical Paths under _main in BANK3

    None.

Critical Paths under _ISR in BANK3

    None.

Critical Paths under _main in BANK4

    None.

Critical Paths under _ISR in BANK4

    None.

Critical Paths under _main in BANK5

    None.

Critical Paths under _ISR in BANK5

    None.

Critical Paths under _main in BANK6

    None.

Critical Paths under _ISR in BANK6

    None.

Critical Paths under _main in BANK7

    None.

Critical Paths under _ISR in BANK7

    None.

Critical Paths under _main in BANK8

    None.

Critical Paths under _ISR in BANK8

    None.

Critical Paths under _main in BANK9

    None.

Critical Paths under _ISR in BANK9

    None.

Critical Paths under _main in BANK10

    None.

Critical Paths under _ISR in BANK10

    None.

Critical Paths under _main in BANK11

    None.

Critical Paths under _ISR in BANK11

    None.

Critical Paths under _main in BANK12

    None.

Critical Paths under _ISR in BANK12

    None.

Call Graph Tables:

 ---------------------------------------------------------------------------------
 (Depth) Function   	        Calls       Base Space   Used Autos Params    Refs
 ---------------------------------------------------------------------------------
 (0) _main                                                 5     5      0    6124
                                             37 BANK0      5     5      0
                        _EUSART_init
                            _T0_init
                            ___awdiv
                            ___awmod
                            ___flmul
                            ___fltol
                           ___xxtofl
                           _adc_init
                           _lcd_init
                      _lcd_send_data
                     _lcd_set_cursor
                    _lcd_write_ascii
                    _uart_send_ascii
 ---------------------------------------------------------------------------------
 (1) _uart_send_ascii                                      5     3      2     695
                                             11 COMMON     3     3      0
                                              4 BANK0      2     0      2
                     _uart_send_byte
 ---------------------------------------------------------------------------------
 (2) _uart_send_byte                                       5     5      0     496
                                             10 COMMON     1     1      0
                                              0 BANK0      4     4      0
                             _memcpy
 ---------------------------------------------------------------------------------
 (3) _memcpy                                              10     5      5     371
                                              0 COMMON    10     5      5
 ---------------------------------------------------------------------------------
 (1) _lcd_write_ascii                                      6     2      4     438
                                              2 COMMON     6     2      4
                      _lcd_send_data
 ---------------------------------------------------------------------------------
 (2) _lcd_send_data                                        1     1      0      44
                                              1 COMMON     1     1      0
                     _lcd_write_data
 ---------------------------------------------------------------------------------
 (1) _lcd_set_cursor                                       4     3      1     330
                                              2 COMMON     4     3      1
                       _lcd_send_cmd
 ---------------------------------------------------------------------------------
 (1) _lcd_init                                             1     1      0     481
                                             11 COMMON     1     1      0
                   _display_controll
                       _lcd_send_cmd
 ---------------------------------------------------------------------------------
 (2) _display_controll                                     9     7      2     437
                                              2 COMMON     9     7      2
                       _lcd_send_cmd
 ---------------------------------------------------------------------------------
 (2) _lcd_send_cmd                                         1     1      0      44
                                              1 COMMON     1     1      0
                     _lcd_write_data
 ---------------------------------------------------------------------------------
 (3) _lcd_write_data                                       1     1      0      22
                                              0 COMMON     1     1      0
 ---------------------------------------------------------------------------------
 (1) _adc_init                                             0     0      0       0
 ---------------------------------------------------------------------------------
 (1) ___xxtofl                                            14    10      4     398
                                              0 COMMON    14    10      4
 ---------------------------------------------------------------------------------
 (1) ___fltol                                             11     7      4     305
                                             26 BANK0     11     7      4
                            ___flmul (ARG)
                           ___xxtofl (ARG)
 ---------------------------------------------------------------------------------
 (1) ___flmul                                             26    18      8    2417
                                              0 BANK0     26    18      8
                          __Umul8_16
                           ___xxtofl (ARG)
 ---------------------------------------------------------------------------------
 (2) __Umul8_16                                            9     7      2     799
                                              0 COMMON     9     7      2
 ---------------------------------------------------------------------------------
 (1) ___awmod                                              7     3      4     448
                                              0 COMMON     7     3      4
 ---------------------------------------------------------------------------------
 (1) ___awdiv                                              9     5      4     452
                                              0 COMMON     9     5      4
 ---------------------------------------------------------------------------------
 (1) _T0_init                                              0     0      0       0
 ---------------------------------------------------------------------------------
 (1) _EUSART_init                                          0     0      0       0
 ---------------------------------------------------------------------------------
 Estimated maximum stack depth 3
 ---------------------------------------------------------------------------------
 (Depth) Function   	        Calls       Base Space   Used Autos Params    Refs
 ---------------------------------------------------------------------------------
 (5) _ISR                                                  0     0      0       0
 ---------------------------------------------------------------------------------
 Estimated maximum stack depth 5
 ---------------------------------------------------------------------------------

 Call Graph Graphs:

 _main (ROOT)
   _EUSART_init
   _T0_init
   ___awdiv
   ___awmod
   ___flmul
     __Umul8_16
     ___xxtofl (ARG)
   ___fltol
     ___flmul (ARG)
       __Umul8_16
       ___xxtofl (ARG)
     ___xxtofl (ARG)
   ___xxtofl
   _adc_init
   _lcd_init
     _display_controll
       _lcd_send_cmd
         _lcd_write_data
     _lcd_send_cmd
       _lcd_write_data
   _lcd_send_data
     _lcd_write_data
   _lcd_set_cursor
     _lcd_send_cmd
       _lcd_write_data
   _lcd_write_ascii
     _lcd_send_data
       _lcd_write_data
   _uart_send_ascii
     _uart_send_byte
       _memcpy

 _ISR (ROOT)

 Address spaces:
Name               Size   Autos  Total    Cost      Usage
BIGRAM             3F0      0       0       0        0.0%
EEDATA             100      0       0       0        0.0%
NULL                 0      0       0       0        0.0%
CODE                 0      0       0       0        0.0%
BITCOMMON            E      0       0       1        0.0%
BITSFR0              0      0       0       1        0.0%
SFR0                 0      0       0       1        0.0%
COMMON               E      E       E       2      100.0%
BITSFR1              0      0       0       2        0.0%
SFR1                 0      0       0       2        0.0%
BITSFR2              0      0       0       3        0.0%
SFR2                 0      0       0       3        0.0%
STACK                0      0       0       3        0.0%
BITBANK0            50      0       0       4        0.0%
BITSFR3              0      0       0       4        0.0%
SFR3                 0      0       0       4        0.0%
BANK0               50     2A      2D       5       56.3%
BITSFR4              0      0       0       5        0.0%
SFR4                 0      0       0       5        0.0%
BITBANK1            50      0       0       6        0.0%
BITSFR5              0      0       0       6        0.0%
SFR5                 0      0       0       6        0.0%
BANK1               50      0       0       7        0.0%
BITSFR6              0      0       0       7        0.0%
SFR6                 0      0       0       7        0.0%
BITBANK2            50      0       0       8        0.0%
BITSFR7              0      0       0       8        0.0%
SFR7                 0      0       0       8        0.0%
BANK2               50      0       0       9        0.0%
BITSFR8              0      0       0       9        0.0%
SFR8                 0      0       0       9        0.0%
BITBANK3            50      0       0      10        0.0%
BITSFR9              0      0       0      10        0.0%
SFR9                 0      0       0      10        0.0%
BANK3               50      0       0      11        0.0%
BITSFR10             0      0       0      11        0.0%
SFR10                0      0       0      11        0.0%
BITBANK4            50      0       0      12        0.0%
BITSFR11             0      0       0      12        0.0%
SFR11                0      0       0      12        0.0%
BANK4               50      0       0      13        0.0%
BITSFR12             0      0       0      13        0.0%
SFR12                0      0       0      13        0.0%
BITBANK5            50      0       0      14        0.0%
BITSFR13             0      0       0      14        0.0%
SFR13                0      0       0      14        0.0%
BANK5               50      0       0      15        0.0%
BITSFR14             0      0       0      15        0.0%
SFR14                0      0       0      15        0.0%
BITBANK6            50      0       0      16        0.0%
BITSFR15             0      0       0      16        0.0%
SFR15                0      0       0      16        0.0%
BANK6               50      0       0      17        0.0%
BITSFR16             0      0       0      17        0.0%
SFR16                0      0       0      17        0.0%
BITBANK7            50      0       0      18        0.0%
BITSFR17             0      0       0      18        0.0%
SFR17                0      0       0      18        0.0%
BANK7               50      0       0      19        0.0%
BITSFR18             0      0       0      19        0.0%
SFR18                0      0       0      19        0.0%
BITSFR19             0      0       0      20        0.0%
SFR19                0      0       0      20        0.0%
ABS                  0      0      3B      20        0.0%
BITBANK8            50      0       0      21        0.0%
BITSFR20             0      0       0      21        0.0%
SFR20                0      0       0      21        0.0%
BANK8               50      0       0      22        0.0%
BITSFR21             0      0       0      22        0.0%
SFR21                0      0       0      22        0.0%
BITBANK9            50      0       0      23        0.0%
BITSFR22             0      0       0      23        0.0%
SFR22                0      0       0      23        0.0%
BANK9               50      0       0      24        0.0%
BITSFR23             0      0       0      24        0.0%
SFR23                0      0       0      24        0.0%
BITBANK10           50      0       0      25        0.0%
BITSFR24             0      0       0      25        0.0%
SFR24                0      0       0      25        0.0%
BANK10              50      0       0      26        0.0%
BITSFR25             0      0       0      26        0.0%
SFR25                0      0       0      26        0.0%
BITBANK11           50      0       0      27        0.0%
BITSFR26             0      0       0      27        0.0%
SFR26                0      0       0      27        0.0%
BANK11              50      0       0      28        0.0%
BITSFR27             0      0       0      28        0.0%
SFR27                0      0       0      28        0.0%
BITBANK12           30      0       0      29        0.0%
BITSFR28             0      0       0      29        0.0%
SFR28                0      0       0      29        0.0%
BANK12              30      0       0      30        0.0%
BITSFR29             0      0       0      30        0.0%
SFR29                0      0       0      30        0.0%
BITSFR30             0      0       0      31        0.0%
SFR30                0      0       0      31        0.0%
DATA                 0      0      3B      31        0.0%
BITSFR31             0      0       0      32        0.0%
SFR31                0      0       0      32        0.0%


Microchip Technology PIC Macro Assembler V2.10 build 88905656 
Symbol Table                                                                                   Mon Mar 09 00:51:37 2020

            ?_lcd_send_cmd 0070                __CFG_CP$OFF 0000             ?_lcd_send_data 0070  
                       l91 029E                         l93 02A2               ___awdiv@sign 0076  
      __Umul8_16@word_mpld 0076                __CFG_LVP$ON 0000                        l111 0680  
                      l114 06D0                        l130 0591                        l117 06AE  
                      l133 05B5                        l139 0699                        l173 06E2  
                      l182 0533                        l511 0586                        l167 06C0  
                      l176 06D9                        l193 0666                        l179 0604  
                      l187 0627                        l801 05E0                        l546 0466  
                      l539 047B                        l805 063A                        l549 047B  
                      l742 0293                        l807 064A                        l498 04DA  
                      l754 0287                        l748 020F                        l780 037D  
                      l782 0406                        l793 03D2                        l794 03DE  
                      l786 03B8                        _GIE 005F               __CFG_CPD$OFF 0000  
                      _ISR 0004                        u910 05E0                        u911 05DF  
                      u920 0596                        u921 0595                        u930 05B5  
                      u931 05B4                        u960 0636                        u961 0635  
                      u945 05E8                        u955 05F1                        u980 0646  
                      u981 0645                        u990 060B                        u975 063B  
                      u991 060A                        _tmp 004B               ___awmod@sign 0076  
             __CFG_BORV$LO 0000                        wreg 0009               ___flmul@aexp 0032  
             ___flmul@bexp 0033               ___flmul@sign 002D               ___flmul@temp 0038  
             ___flmul@prod 0034            ?_lcd_set_cursor 0072                       ?_ISR 0070  
             __CFG_ZCD$OFF 0000               ___fltol@exp1 0044                       l1411 06B3  
                     l1501 0674                       l1413 06B5                       l1511 06A4  
                     l1503 067A                       l1415 06B6                       l1407 06B0  
                     l1431 05D0                       l1423 05B6                       l1521 06AC  
                     l1513 06A7                       l1601 04A0                       l1505 067B  
                     l1417 06BA                       l1409 06B2                       l1441 06D2  
                     l1425 05BF                       l1433 05D4                       l1515 06A8  
                     l1611 04C0                       l1603 04A5                       l1507 067C  
                     l1419 06BC                       l1435 06DB                       l1531 04F9  
                     l1523 04DB                       l1443 06D5                       l1427 05C6  
             ?_EUSART_init 0070                       l1517 06A9                       l1509 069A  
                     l1621 04D6                       l1613 04C1                       l1605 04A9  
                     l1701 0043                       l1437 06DE                       l1461 05E2  
                     l1541 0515                       l1533 04FC                       l1525 04E2  
                     l1429 05CA                       l1453 0596                       l1445 0589  
                     l1519 06AB                       l1615 04C6                       l1607 04AD  
                     l1631 053E                       l1471 062B                       l1711 0056  
                     l1703 0047                       l1463 05FC                       l1543 0521  
                     l1535 0503                       l1527 04EA                       l1551 0606  
                     l1455 05A6                       l1447 058D                       l1609 04BC  
                     l1617 04CC                       l1641 0552                       l1633 0540  
                     l1625 0534                       l1473 0632                       l1801 01F8  
                     l1721 0071                       l1713 005E                       l1705 004B  
                     l1465 0600                       l1545 0525                       l1537 0507  
                     l1529 04EE                       l1561 061F                       l1553 060B  
                     l1457 05AB                       l1491 06CF                       l1483 06C1  
                     l1619 04D1                       l1651 056D                       l1643 0557  
                     l1635 0544                       l1627 0535                       l1475 0636  
                     l1811 0221                       l1803 020C                       l1731 0088  
                     l1723 0075                       l1715 0060                       l1707 004C  
                     l1547 052F                       l1539 0511                       l1563 0623  
                     l1555 0610                       l1571 065C                       l1459 05AF  
                     l1485 06C3                       l1581 047C                       l1653 0572  
                     l1645 055B                       l1637 0549                       l1629 0539  
                     l1477 0641                       l1469 0629                       l1821 0258  
                     l1813 0225                       l1733 008A                       l1725 0076  
                     l1717 0068                       l1709 0051                       l1493 0667  
                     l1557 0614                       l1565 064B                       l1573 0682  
                     l1901 02AF                       l1487 06CB                       l1591 048C  
                     l1583 047D                       l1647 055F                       l1639 054F  
                     l1655 0578                       l1479 0646                       l1831 0282  
                     l1823 0266                       l1815 023D                       l1807 0214  
                     l1751 00E6                       l1743 00A5                       l1735 0092  
                     l1727 007B                       l1719 006D                       l1671 042F  
                     l1663 0407                       l1495 066E                       l1559 061A  
                     l1567 064E                       l1575 0685                       l1911 02CA  
                     l1903 02B2                       l1489 06CD                       l1593 0491  
                     l1585 0481                       l1657 057D                       l1649 0569  
                     l1833 0283                       l1825 026F                       l1809 0219  
                     l1817 0241                       l1761 012E                       l1753 0100  
                     l1745 00B2                       l1737 0097                       l1729 0080  
                     l1673 0430                       l1665 0413                       l1841 0361  
                     l1497 0671                       l1569 0658                       l1577 068A  
                     l1921 030C                       l1913 02CE                       l1905 02B5  
                     l1595 0495                       l1587 0486                       l1659 0582  
                     l1835 028B                       l1827 0271                       l1819 024E  
                     l1771 0164                       l1763 0135                       l1755 010D  
                     l1747 00BF                       l1739 009C                       l1675 0438  
                     l1851 038E                       l1843 0365                       l1499 0672  
                     l1579 068E                       l1931 0341                       l1923 0321  
                     l1915 02D0                       l1907 02BB                       l1597 0497  
                     l1589 0488                       l1829 027E                       l1781 01C5  
                     l1773 0178                       l1765 0142                       l1757 011A  
                     l1749 00D9                       l1693 045D                       l1685 0446  
                     l1677 043A                       l1669 041C                       l1861 03B1  
                     l1853 0393                       l1845 0375                       l1933 034C  
                     l1925 0331                       l1917 02D5                       l1909 02C6  
                     l1599 049D                       l1791 01E4                       l1783 01CC  
                     l1775 0185                       l1767 0149                       l1759 0121  
                     l1695 046B                       l1679 043E                       l1687 0456  
                     l1871 03E0                       l1863 03BF                       l1855 039E  
                     l1847 0385                       l1839 035C                       l1935 0355  
                     l1927 0335                       l1919 0307                       l1793 01EB  
                     l1785 01D8                       l1777 0199                       l1769 015D  
                     l1697 0470                       l1873 03F4                       l1865 03C8  
                     l1857 03A5                       l1937 0357                       l1929 0339  
                     l1787 01DF                       l1795 01EF                       l1779 01AE  
                     l1699 003D                       l1875 03F9                       l1867 03CC  
                     l1859 03A9                       l1891 02A5                       l1883 0294  
                     l1797 01F3                       l1789 01E3                       l1877 03FD  
                     l1869 03D6                       l1893 02A7                       l1885 0296  
                     l1799 01F4                       l1879 03FE                       l1895 02A8  
                     l1887 0298                       l1897 02A9                       l1889 029A  
                     l1899 02AC                       _ADIE 38B8                       _ADIF 3868  
                     STR_1 06E3                       u1000 061A                       _T0EN 00F7  
                     u1001 0619                       u1010 0666                       u1011 0665  
                     u1020 0699                       u1021 0698                       u1110 04CC  
                     u1030 0481                       u1111 04CB                       u1031 0480  
                     u1015 0662                       u1120 04D1                       u1040 048C  
                     u1200 0578                       u1121 04D0                       u1105 04C2  
                     u1041 048B                       u1201 0577                       u1025 0695  
                     u1050 049D                       u1210 057D                       u1130 0539  
                     u1051 049C                       u1211 057C                       u1131 0538  
                     u1140 0544                       u1300 046B                       u1220 0413  
                     u1141 0543                       u1301 046A                       u1221 0412  
                     u1070 04AD                       u1150 054F                       u1310 0470  
                     u1230 0429                       u1071 04AC                       u1151 054E  
                     u1311 046F                       u1320 004B                       u1240 043E  
                     u1065 04A1                       u1321 004A                       u1241 043D  
                     u1090 04BC                       u1170 055F                       u1330 0051  
                     u1250 0445                       u1091 04BB                       u1171 055E  
                     u1331 0050                       u1251 0444                       u1235 0425  
                     u1180 0569                       u1500 020C                       u1420 01A4  
                     u1340 0056                       u1085 04AE                       u1181 0568  
                     u1165 0553                       u1501 020B                       u1405 011B  
                     u1341 0055                       u1510 0213                       u1430 01BB  
                     u1350 0075                       u1270 0455                       _LATB 0017  
                     u1095 04B8                       u1511 0212                       u1415 014A  
                     u1351 0074                       u1271 0454                       u1520 0219  
                     u1360 007B                       u1280 045C                       u1600 0385  
                     u1185 0565                       u1521 0218                       u1425 01A0  
                     u1361 007A                       u1281 045B                       u1265 0447  
                     u1601 0384                       u1530 0225                       u1370 0080  
                     u1195 056E                       u1531 0224                       u1435 01B7  
                     u1371 007F                       u1540 0233                       u1460 01E3  
                     u1380 0097                       u1700 03F9                       u1620 03A4  
                     u1461 01E2                       u1445 01C6                       u1381 0096  
                     u1701 03F8                       u1621 03A3                       u1550 024E  
                     u1390 009C                       u1710 03FD                       u1551 024D  
                     u1455 01D9                       u1391 009B                       u1295 045E  
                     u1711 03FC                       u1615 0398                       u1560 0266  
                     u1480 01F3                       u1640 03BE                       u1720 02A2  
                     u1561 0265                       u1545 022F                       u1481 01F2  
                     u1641 03BD                       u1721 02A1                       u1570 0282  
                     u1490 01F8                       u1730 02D5                       u1571 0281  
                     u1555 024A                       u1491 01F7                       u1475 01E5  
                     u1635 03B2                       u1731 02D4                       u1660 03CC  
                     u1580 0361                       u1740 0339                       u1565 0262  
                     u1661 03CB                       u1581 0360                       u1741 0338  
                     u1670 03D2                       u1590 0365                       u1671 03D1  
                     u1655 03C2                       u1591 0364                       u1807 04E5  
                     u1680 03D6                       u1681 03D5                       u1817 04F1  
                     u1690 03EA                       u1907 06B7                       u1827 04FA  
                     u1917 06BD                       u1837 0501                       u1695 03E6  
                     u1927 067D                       u1847 0508                       u1857 0512  
                     u1867 051C                       _PEIE 005E                       u1877 0526  
                     u1797 0624                       u1887 0530                       u1897 0601  
                     _TMR0 001C                       _TRMT 08F1                       _TXIE 38CC  
          __end_of_T0_init 06D1               __CFG_WRT$OFF 0000              __CFG_FCMEN$ON 0000  
   __end_of_lcd_write_data 06C1                       _main 0294                       fsr0h 0005  
                     fsr1h 0007                       indf0 0000                       fsr0l 0004  
                     indf1 0001                       fsr1l 0006                       btemp 007E  
            __CFG_BOREN$ON 0000                       start 0033              __CFG_CSWEN$ON 0000  
            __CFG_MCLRE$ON 0000             ??_lcd_send_cmd 0071           ??_uart_send_byte 007A  
                    ??_ISR 0070              ___fltol@sign1 0043                      ?_main 0070  
                    _ADCLK 0098                      _ADPCH 009E            __end_of___awdiv 04DB  
 __end_of_display_controll 0605                      _ADRES 008C              __CFG_WDTE$OFF 0000  
          __end_of___awmod 0587            __end_of___flmul 0294            __end_of___fltol 047C  
          ___awdiv@divisor 0070                      _LATA3 00B3                      i1l108 0031  
          ___awdiv@counter 0075                      _RCREG 0119                      _PORTB 000D  
                    _TRISB 0012                      _TXREG 011A           lcd_write_ascii@i 0076  
  __end_of_lcd_write_ascii 0667                      _check 004A                      main@i 0048  
                    main@t 0046            ?_lcd_write_data 0070                      status 0003  
                    wtemp0 007E            __initialization 0035            ??_lcd_send_data 0071  
             __end_of_main 035B          ??_uart_send_ascii 007B                     ??_main 0045  
                ??_T0_init 0070                     _ADFRM0 049A           ___awdiv@dividend 0072  
         __end_of_adc_init 0681                     _RC6PPS 0F26                     i1l1941 000B  
                   i1l1943 000F                     i1l1951 001B                     i1l1953 0020  
                   i1l1945 0012                     i1l1955 0024                     i1l1947 0017  
                   i1l1939 0006                     i1l1957 002C                     i1l1949 0019  
                   i1l1959 002E             __CFG_WDTCCS$SC 0000                     u175_20 000B  
                   u175_21 000A                     u176_20 000F                     u176_21 000E  
                   u177_20 0020                     u177_21 001F                     _SP1BRG 011B  
                   u178_20 0024                     u178_21 0023                     _OSCFRQ 0893  
                   _TMR0IE 38B5                     _TMR0IF 3865                     _TRISA3 008B  
                   _TRISC6 009E                     _TRISC7 009F           __end_of___xxtofl 0407  
           __CFG_PWRTE$OFF 0000   uart_send_ascii@data_size 0024           __end_of_lcd_init 0534  
                ??___awdiv 0074             __CFG_STVREN$ON 0000                  ??___awmod 0074  
                ??___flmul 0028                  ??___fltol 003E                     _memcpy 05B6  
         ___awdiv@quotient 0077            ___awmod@divisor 0070            ___awmod@counter 0075  
       __size_of__Umul8_16 0023           ?_lcd_write_ascii 0072       __end_of_lcd_send_cmd 06E3  
             ___xxtofl@arg 007A               ___xxtofl@exp 0079               ___xxtofl@val 0070  
  __end_of__initialization 0039       __size_of_EUSART_init 0015                 ___fltol@f1 003A  
           __pcstackCOMMON 0070           ??_lcd_set_cursor 0073                 __pbssBANK0 004A  
        __end_of__Umul8_16 064B                 __pmaintext 0294            __CFG_PPS1WAY$ON 0000  
               __pintentry 0004                    _T016BIT 00F4                    ?_memcpy 0070  
                ?_adc_init 0070        __CFG_RSTOSC$HFINT32 0000          ?_display_controll 0072  
                ?___xxtofl 0070         ??_display_controll 0074                    _OSCCON1 088D  
                  _T0_init 06C1           ??_lcd_write_data 0070                  ?_lcd_init 0070  
       lcd_write_data@data 0070            _uart_send_ascii 0681          uart_send_byte@num 0020  
        uart_send_byte@ptr 0021                  _ADREFbits 009A         lcd_write_ascii@str 0072  
     __CFG_SCANE$available 0000                    ___awdiv 047C                    ___awmod 0534  
                  ___flmul 003D                    ___fltol 0407            __size_of_memcpy 002B  
               ??_adc_init 0070                    __ptext1 0681                    __ptext2 0587  
                  __ptext3 05B6                    __ptext4 064B                    __ptext5 06D1  
                  __ptext6 0605                    __ptext7 04DB                    __ptext8 05E1  
                  __ptext9 06DA               __size_of_ISR 002F      __size_of_lcd_send_cmd 0009  
               ??___xxtofl 0074           ___awmod@dividend 0072                 ??_lcd_init 007B  
     end_of_initialization 0039                    memcpy@d 0076                    memcpy@n 0073  
                  memcpy@s 0079               _lcd_send_cmd 06DA      __end_of_lcd_send_data 06DA  
    __CFG_WDTCPS$WDTCPS_31 0000    __size_of_uart_send_byte 002F              ___xxtofl@sign 0078  
                _TRISAbits 0011    __end_of_uart_send_ascii 069A                  _TRISDbits 0014  
      uart_send_ascii@data 007B           __CFG_FEXTOSC$OFF 0000   lcd_write_ascii@data_size 0074  
              ___flmul@grs 002E             __end_of_memcpy 05E1        start_initialization 0035  
              __end_of_ISR 0033              ??_EUSART_init 0070   __size_of_lcd_write_ascii 001C  
         __CFG_LPBOREN$OFF 0000                  __Umul8_16 0628                   ??_memcpy 0075  
        __size_of_adc_init 001A                  ___flmul@a 0024                  ___flmul@b 0020  
                ___latbits 0002              __pcstackBANK0 0020           ?_uart_send_ascii 0024  
                 ?_T0_init 0070          lcd_send_data@data 0071          __size_of___xxtofl 00AC  
        __size_of_lcd_init 0059  __size_of_display_controll 0024            lcd_send_cmd@cmd 0071  
      __end_of_EUSART_init 06AF                   ?___awdiv 0070                   ?___awmod 0070  
                 ?___flmul 0020                   ?___fltol 003A                 ?__Umul8_16 0070  
         uart_send_ascii@i 007C             _uart_send_byte 0587    __size_of_lcd_set_cursor 0023  
                 _LATDbits 0019            lcd_set_cursor@c 0072            lcd_set_cursor@r 0074  
        display_controll@b 0073          display_controll@c 0072          display_controll@d 0079  
        ??_lcd_write_ascii 0076     __end_of_uart_send_byte 05B6                 _ADCON0bits 0093  
               _ADCON3bits 0096           __size_of_T0_init 0010                _EUSART_init 069A  
       uart_send_byte@size 0022    __size_of_lcd_write_data 0012                  memcpy@tmp 0078  
              ??__Umul8_16 0072           __size_of___awdiv 005F           __size_of___awmod 0053  
         __size_of___flmul 0257           __size_of___fltol 0075            ?_uart_send_byte 0070  
                 _adc_init 0667                 _ANSELAbits 0F38                 _ANSELCbits 0F4E  
       lcd_set_cursor@Temp 0075                   ___xxtofl 035B                 _T0CON1bits 001F  
                 __ptext10 06AF                   __ptext11 0667                   __ptext12 035B  
                 __ptext13 0407                   __ptext14 003D                   __ptext15 0628  
                 __ptext16 0534                   __ptext17 047C                   __ptext18 06C1  
                 __ptext19 069A                   _lcd_init 04DB     __size_of_lcd_send_data 0009  
         _display_controll 05E1              __size_of_main 00C7       __CFG_WDTCWS$WDTCWS_7 0000  
               _RC1STAbits 011D                   int$flags 007E                   memcpy@d1 0070  
               _FVRCONbits 090C                   memcpy@s1 0072                   intlevel1 0000  
           _lcd_set_cursor 0605          __CFG_CLKOUTEN$OFF 0000        display_controll@cmd 007A  
            _lcd_send_data 06D1              __pstringtext1 06E3              __pstringtext2 0000  
   __Umul8_16@multiplicand 0070     __end_of_lcd_set_cursor 0628                 _TX1STAbits 011E  
          _lcd_write_ascii 064B   __size_of_uart_send_ascii 0019       __Umul8_16@multiplier 0078  
           _lcd_write_data 06AF          __Umul8_16@product 0074  
